
RTOS_V3.elf:     file format elf32-avr

Sections:
Idx Name          Size      VMA       LMA       File off  Algn
  0 .text         00000e16  00000000  00000000  00000094  2**1
                  CONTENTS, ALLOC, LOAD, READONLY, CODE
  1 .data         00000004  00800060  00000e16  00000eaa  2**0
                  CONTENTS, ALLOC, LOAD, DATA
  2 .bss          0000002d  00800064  00800064  00000eae  2**0
                  ALLOC
  3 .stab         000013f8  00000000  00000000  00000eb0  2**2
                  CONTENTS, READONLY, DEBUGGING
  4 .stabstr      00000ca8  00000000  00000000  000022a8  2**0
                  CONTENTS, READONLY, DEBUGGING

Disassembly of section .text:

00000000 <__vectors>:
   0:	0c 94 2a 00 	jmp	0x54	; 0x54 <__ctors_end>
   4:	0c 94 47 00 	jmp	0x8e	; 0x8e <__bad_interrupt>
   8:	0c 94 47 00 	jmp	0x8e	; 0x8e <__bad_interrupt>
   c:	0c 94 47 00 	jmp	0x8e	; 0x8e <__bad_interrupt>
  10:	0c 94 47 00 	jmp	0x8e	; 0x8e <__bad_interrupt>
  14:	0c 94 47 00 	jmp	0x8e	; 0x8e <__bad_interrupt>
  18:	0c 94 47 00 	jmp	0x8e	; 0x8e <__bad_interrupt>
  1c:	0c 94 47 00 	jmp	0x8e	; 0x8e <__bad_interrupt>
  20:	0c 94 47 00 	jmp	0x8e	; 0x8e <__bad_interrupt>
  24:	0c 94 47 00 	jmp	0x8e	; 0x8e <__bad_interrupt>
  28:	0c 94 79 06 	jmp	0xcf2	; 0xcf2 <__vector_10>
  2c:	0c 94 47 00 	jmp	0x8e	; 0x8e <__bad_interrupt>
  30:	0c 94 47 00 	jmp	0x8e	; 0x8e <__bad_interrupt>
  34:	0c 94 47 00 	jmp	0x8e	; 0x8e <__bad_interrupt>
  38:	0c 94 47 00 	jmp	0x8e	; 0x8e <__bad_interrupt>
  3c:	0c 94 47 00 	jmp	0x8e	; 0x8e <__bad_interrupt>
  40:	0c 94 47 00 	jmp	0x8e	; 0x8e <__bad_interrupt>
  44:	0c 94 47 00 	jmp	0x8e	; 0x8e <__bad_interrupt>
  48:	0c 94 47 00 	jmp	0x8e	; 0x8e <__bad_interrupt>
  4c:	0c 94 47 00 	jmp	0x8e	; 0x8e <__bad_interrupt>
  50:	0c 94 47 00 	jmp	0x8e	; 0x8e <__bad_interrupt>

00000054 <__ctors_end>:
  54:	11 24       	eor	r1, r1
  56:	1f be       	out	0x3f, r1	; 63
  58:	cf e5       	ldi	r28, 0x5F	; 95
  5a:	d8 e0       	ldi	r29, 0x08	; 8
  5c:	de bf       	out	0x3e, r29	; 62
  5e:	cd bf       	out	0x3d, r28	; 61

00000060 <__do_copy_data>:
  60:	10 e0       	ldi	r17, 0x00	; 0
  62:	a0 e6       	ldi	r26, 0x60	; 96
  64:	b0 e0       	ldi	r27, 0x00	; 0
  66:	e6 e1       	ldi	r30, 0x16	; 22
  68:	fe e0       	ldi	r31, 0x0E	; 14
  6a:	02 c0       	rjmp	.+4      	; 0x70 <.do_copy_data_start>

0000006c <.do_copy_data_loop>:
  6c:	05 90       	lpm	r0, Z+
  6e:	0d 92       	st	X+, r0

00000070 <.do_copy_data_start>:
  70:	a4 36       	cpi	r26, 0x64	; 100
  72:	b1 07       	cpc	r27, r17
  74:	d9 f7       	brne	.-10     	; 0x6c <.do_copy_data_loop>

00000076 <__do_clear_bss>:
  76:	10 e0       	ldi	r17, 0x00	; 0
  78:	a4 e6       	ldi	r26, 0x64	; 100
  7a:	b0 e0       	ldi	r27, 0x00	; 0
  7c:	01 c0       	rjmp	.+2      	; 0x80 <.do_clear_bss_start>

0000007e <.do_clear_bss_loop>:
  7e:	1d 92       	st	X+, r1

00000080 <.do_clear_bss_start>:
  80:	a1 39       	cpi	r26, 0x91	; 145
  82:	b1 07       	cpc	r27, r17
  84:	e1 f7       	brne	.-8      	; 0x7e <.do_clear_bss_loop>
  86:	0e 94 a6 06 	call	0xd4c	; 0xd4c <main>
  8a:	0c 94 09 07 	jmp	0xe12	; 0xe12 <_exit>

0000008e <__bad_interrupt>:
  8e:	0c 94 00 00 	jmp	0	; 0x0 <__vectors>

00000092 <DIO_u8SetPinDirecton>:




u8 DIO_u8SetPinDirecton(u8 copy_u8Port,u8 copy_u8Pin,u8 copy_u8Direction)
{
  92:	df 93       	push	r29
  94:	cf 93       	push	r28
  96:	cd b7       	in	r28, 0x3d	; 61
  98:	de b7       	in	r29, 0x3e	; 62
  9a:	28 97       	sbiw	r28, 0x08	; 8
  9c:	0f b6       	in	r0, 0x3f	; 63
  9e:	f8 94       	cli
  a0:	de bf       	out	0x3e, r29	; 62
  a2:	0f be       	out	0x3f, r0	; 63
  a4:	cd bf       	out	0x3d, r28	; 61
  a6:	8a 83       	std	Y+2, r24	; 0x02
  a8:	6b 83       	std	Y+3, r22	; 0x03
  aa:	4c 83       	std	Y+4, r20	; 0x04
	u8 Local_u8ErorrState=0;
  ac:	19 82       	std	Y+1, r1	; 0x01

	if (copy_u8Pin<=7)
  ae:	8b 81       	ldd	r24, Y+3	; 0x03
  b0:	88 30       	cpi	r24, 0x08	; 8
  b2:	08 f0       	brcs	.+2      	; 0xb6 <DIO_u8SetPinDirecton+0x24>
  b4:	f4 c0       	rjmp	.+488    	; 0x29e <DIO_u8SetPinDirecton+0x20c>
	{
		if (copy_u8Direction== DIO_u8PIN_INPUT)
  b6:	8c 81       	ldd	r24, Y+4	; 0x04
  b8:	88 23       	and	r24, r24
  ba:	09 f0       	breq	.+2      	; 0xbe <DIO_u8SetPinDirecton+0x2c>
  bc:	77 c0       	rjmp	.+238    	; 0x1ac <DIO_u8SetPinDirecton+0x11a>
		{
			switch(copy_u8Port)
  be:	8a 81       	ldd	r24, Y+2	; 0x02
  c0:	28 2f       	mov	r18, r24
  c2:	30 e0       	ldi	r19, 0x00	; 0
  c4:	38 87       	std	Y+8, r19	; 0x08
  c6:	2f 83       	std	Y+7, r18	; 0x07
  c8:	8f 81       	ldd	r24, Y+7	; 0x07
  ca:	98 85       	ldd	r25, Y+8	; 0x08
  cc:	81 30       	cpi	r24, 0x01	; 1
  ce:	91 05       	cpc	r25, r1
  d0:	59 f1       	breq	.+86     	; 0x128 <DIO_u8SetPinDirecton+0x96>
  d2:	2f 81       	ldd	r18, Y+7	; 0x07
  d4:	38 85       	ldd	r19, Y+8	; 0x08
  d6:	22 30       	cpi	r18, 0x02	; 2
  d8:	31 05       	cpc	r19, r1
  da:	2c f4       	brge	.+10     	; 0xe6 <DIO_u8SetPinDirecton+0x54>
  dc:	8f 81       	ldd	r24, Y+7	; 0x07
  de:	98 85       	ldd	r25, Y+8	; 0x08
  e0:	00 97       	sbiw	r24, 0x00	; 0
  e2:	69 f0       	breq	.+26     	; 0xfe <DIO_u8SetPinDirecton+0x6c>
  e4:	60 c0       	rjmp	.+192    	; 0x1a6 <DIO_u8SetPinDirecton+0x114>
  e6:	2f 81       	ldd	r18, Y+7	; 0x07
  e8:	38 85       	ldd	r19, Y+8	; 0x08
  ea:	22 30       	cpi	r18, 0x02	; 2
  ec:	31 05       	cpc	r19, r1
  ee:	89 f1       	breq	.+98     	; 0x152 <DIO_u8SetPinDirecton+0xc0>
  f0:	8f 81       	ldd	r24, Y+7	; 0x07
  f2:	98 85       	ldd	r25, Y+8	; 0x08
  f4:	83 30       	cpi	r24, 0x03	; 3
  f6:	91 05       	cpc	r25, r1
  f8:	09 f4       	brne	.+2      	; 0xfc <DIO_u8SetPinDirecton+0x6a>
  fa:	40 c0       	rjmp	.+128    	; 0x17c <DIO_u8SetPinDirecton+0xea>
  fc:	54 c0       	rjmp	.+168    	; 0x1a6 <DIO_u8SetPinDirecton+0x114>
			{
			case DIO_u8PORTA: CLR_BIT(DDRA,copy_u8Pin);break;
  fe:	aa e3       	ldi	r26, 0x3A	; 58
 100:	b0 e0       	ldi	r27, 0x00	; 0
 102:	ea e3       	ldi	r30, 0x3A	; 58
 104:	f0 e0       	ldi	r31, 0x00	; 0
 106:	80 81       	ld	r24, Z
 108:	48 2f       	mov	r20, r24
 10a:	8b 81       	ldd	r24, Y+3	; 0x03
 10c:	28 2f       	mov	r18, r24
 10e:	30 e0       	ldi	r19, 0x00	; 0
 110:	81 e0       	ldi	r24, 0x01	; 1
 112:	90 e0       	ldi	r25, 0x00	; 0
 114:	02 2e       	mov	r0, r18
 116:	02 c0       	rjmp	.+4      	; 0x11c <DIO_u8SetPinDirecton+0x8a>
 118:	88 0f       	add	r24, r24
 11a:	99 1f       	adc	r25, r25
 11c:	0a 94       	dec	r0
 11e:	e2 f7       	brpl	.-8      	; 0x118 <DIO_u8SetPinDirecton+0x86>
 120:	80 95       	com	r24
 122:	84 23       	and	r24, r20
 124:	8c 93       	st	X, r24
 126:	bd c0       	rjmp	.+378    	; 0x2a2 <DIO_u8SetPinDirecton+0x210>
			case DIO_u8PORTB: CLR_BIT(DDRB,copy_u8Pin);break;
 128:	a7 e3       	ldi	r26, 0x37	; 55
 12a:	b0 e0       	ldi	r27, 0x00	; 0
 12c:	e7 e3       	ldi	r30, 0x37	; 55
 12e:	f0 e0       	ldi	r31, 0x00	; 0
 130:	80 81       	ld	r24, Z
 132:	48 2f       	mov	r20, r24
 134:	8b 81       	ldd	r24, Y+3	; 0x03
 136:	28 2f       	mov	r18, r24
 138:	30 e0       	ldi	r19, 0x00	; 0
 13a:	81 e0       	ldi	r24, 0x01	; 1
 13c:	90 e0       	ldi	r25, 0x00	; 0
 13e:	02 2e       	mov	r0, r18
 140:	02 c0       	rjmp	.+4      	; 0x146 <DIO_u8SetPinDirecton+0xb4>
 142:	88 0f       	add	r24, r24
 144:	99 1f       	adc	r25, r25
 146:	0a 94       	dec	r0
 148:	e2 f7       	brpl	.-8      	; 0x142 <DIO_u8SetPinDirecton+0xb0>
 14a:	80 95       	com	r24
 14c:	84 23       	and	r24, r20
 14e:	8c 93       	st	X, r24
 150:	a8 c0       	rjmp	.+336    	; 0x2a2 <DIO_u8SetPinDirecton+0x210>
			case DIO_u8PORTC: CLR_BIT(DDRC,copy_u8Pin);break;
 152:	a4 e3       	ldi	r26, 0x34	; 52
 154:	b0 e0       	ldi	r27, 0x00	; 0
 156:	e4 e3       	ldi	r30, 0x34	; 52
 158:	f0 e0       	ldi	r31, 0x00	; 0
 15a:	80 81       	ld	r24, Z
 15c:	48 2f       	mov	r20, r24
 15e:	8b 81       	ldd	r24, Y+3	; 0x03
 160:	28 2f       	mov	r18, r24
 162:	30 e0       	ldi	r19, 0x00	; 0
 164:	81 e0       	ldi	r24, 0x01	; 1
 166:	90 e0       	ldi	r25, 0x00	; 0
 168:	02 2e       	mov	r0, r18
 16a:	02 c0       	rjmp	.+4      	; 0x170 <DIO_u8SetPinDirecton+0xde>
 16c:	88 0f       	add	r24, r24
 16e:	99 1f       	adc	r25, r25
 170:	0a 94       	dec	r0
 172:	e2 f7       	brpl	.-8      	; 0x16c <DIO_u8SetPinDirecton+0xda>
 174:	80 95       	com	r24
 176:	84 23       	and	r24, r20
 178:	8c 93       	st	X, r24
 17a:	93 c0       	rjmp	.+294    	; 0x2a2 <DIO_u8SetPinDirecton+0x210>
			case DIO_u8PORTD: CLR_BIT(DDRD,copy_u8Pin);break;
 17c:	a1 e3       	ldi	r26, 0x31	; 49
 17e:	b0 e0       	ldi	r27, 0x00	; 0
 180:	e1 e3       	ldi	r30, 0x31	; 49
 182:	f0 e0       	ldi	r31, 0x00	; 0
 184:	80 81       	ld	r24, Z
 186:	48 2f       	mov	r20, r24
 188:	8b 81       	ldd	r24, Y+3	; 0x03
 18a:	28 2f       	mov	r18, r24
 18c:	30 e0       	ldi	r19, 0x00	; 0
 18e:	81 e0       	ldi	r24, 0x01	; 1
 190:	90 e0       	ldi	r25, 0x00	; 0
 192:	02 2e       	mov	r0, r18
 194:	02 c0       	rjmp	.+4      	; 0x19a <DIO_u8SetPinDirecton+0x108>
 196:	88 0f       	add	r24, r24
 198:	99 1f       	adc	r25, r25
 19a:	0a 94       	dec	r0
 19c:	e2 f7       	brpl	.-8      	; 0x196 <DIO_u8SetPinDirecton+0x104>
 19e:	80 95       	com	r24
 1a0:	84 23       	and	r24, r20
 1a2:	8c 93       	st	X, r24
 1a4:	7e c0       	rjmp	.+252    	; 0x2a2 <DIO_u8SetPinDirecton+0x210>
			default: Local_u8ErorrState =1;
 1a6:	81 e0       	ldi	r24, 0x01	; 1
 1a8:	89 83       	std	Y+1, r24	; 0x01
 1aa:	7b c0       	rjmp	.+246    	; 0x2a2 <DIO_u8SetPinDirecton+0x210>
			}
		}
		else if(copy_u8Direction==DIO_u8PIN_OUTPUT)
 1ac:	8c 81       	ldd	r24, Y+4	; 0x04
 1ae:	81 30       	cpi	r24, 0x01	; 1
 1b0:	09 f0       	breq	.+2      	; 0x1b4 <DIO_u8SetPinDirecton+0x122>
 1b2:	72 c0       	rjmp	.+228    	; 0x298 <DIO_u8SetPinDirecton+0x206>
		{
			switch(copy_u8Port)
 1b4:	8a 81       	ldd	r24, Y+2	; 0x02
 1b6:	28 2f       	mov	r18, r24
 1b8:	30 e0       	ldi	r19, 0x00	; 0
 1ba:	3e 83       	std	Y+6, r19	; 0x06
 1bc:	2d 83       	std	Y+5, r18	; 0x05
 1be:	8d 81       	ldd	r24, Y+5	; 0x05
 1c0:	9e 81       	ldd	r25, Y+6	; 0x06
 1c2:	81 30       	cpi	r24, 0x01	; 1
 1c4:	91 05       	cpc	r25, r1
 1c6:	49 f1       	breq	.+82     	; 0x21a <DIO_u8SetPinDirecton+0x188>
 1c8:	2d 81       	ldd	r18, Y+5	; 0x05
 1ca:	3e 81       	ldd	r19, Y+6	; 0x06
 1cc:	22 30       	cpi	r18, 0x02	; 2
 1ce:	31 05       	cpc	r19, r1
 1d0:	2c f4       	brge	.+10     	; 0x1dc <DIO_u8SetPinDirecton+0x14a>
 1d2:	8d 81       	ldd	r24, Y+5	; 0x05
 1d4:	9e 81       	ldd	r25, Y+6	; 0x06
 1d6:	00 97       	sbiw	r24, 0x00	; 0
 1d8:	61 f0       	breq	.+24     	; 0x1f2 <DIO_u8SetPinDirecton+0x160>
 1da:	5b c0       	rjmp	.+182    	; 0x292 <DIO_u8SetPinDirecton+0x200>
 1dc:	2d 81       	ldd	r18, Y+5	; 0x05
 1de:	3e 81       	ldd	r19, Y+6	; 0x06
 1e0:	22 30       	cpi	r18, 0x02	; 2
 1e2:	31 05       	cpc	r19, r1
 1e4:	71 f1       	breq	.+92     	; 0x242 <DIO_u8SetPinDirecton+0x1b0>
 1e6:	8d 81       	ldd	r24, Y+5	; 0x05
 1e8:	9e 81       	ldd	r25, Y+6	; 0x06
 1ea:	83 30       	cpi	r24, 0x03	; 3
 1ec:	91 05       	cpc	r25, r1
 1ee:	e9 f1       	breq	.+122    	; 0x26a <DIO_u8SetPinDirecton+0x1d8>
 1f0:	50 c0       	rjmp	.+160    	; 0x292 <DIO_u8SetPinDirecton+0x200>
			{
			case DIO_u8PORTA: SET_BIT(DDRA,copy_u8Pin);break;
 1f2:	aa e3       	ldi	r26, 0x3A	; 58
 1f4:	b0 e0       	ldi	r27, 0x00	; 0
 1f6:	ea e3       	ldi	r30, 0x3A	; 58
 1f8:	f0 e0       	ldi	r31, 0x00	; 0
 1fa:	80 81       	ld	r24, Z
 1fc:	48 2f       	mov	r20, r24
 1fe:	8b 81       	ldd	r24, Y+3	; 0x03
 200:	28 2f       	mov	r18, r24
 202:	30 e0       	ldi	r19, 0x00	; 0
 204:	81 e0       	ldi	r24, 0x01	; 1
 206:	90 e0       	ldi	r25, 0x00	; 0
 208:	02 2e       	mov	r0, r18
 20a:	02 c0       	rjmp	.+4      	; 0x210 <DIO_u8SetPinDirecton+0x17e>
 20c:	88 0f       	add	r24, r24
 20e:	99 1f       	adc	r25, r25
 210:	0a 94       	dec	r0
 212:	e2 f7       	brpl	.-8      	; 0x20c <DIO_u8SetPinDirecton+0x17a>
 214:	84 2b       	or	r24, r20
 216:	8c 93       	st	X, r24
 218:	44 c0       	rjmp	.+136    	; 0x2a2 <DIO_u8SetPinDirecton+0x210>
			case DIO_u8PORTB: SET_BIT(DDRB,copy_u8Pin);break;
 21a:	a7 e3       	ldi	r26, 0x37	; 55
 21c:	b0 e0       	ldi	r27, 0x00	; 0
 21e:	e7 e3       	ldi	r30, 0x37	; 55
 220:	f0 e0       	ldi	r31, 0x00	; 0
 222:	80 81       	ld	r24, Z
 224:	48 2f       	mov	r20, r24
 226:	8b 81       	ldd	r24, Y+3	; 0x03
 228:	28 2f       	mov	r18, r24
 22a:	30 e0       	ldi	r19, 0x00	; 0
 22c:	81 e0       	ldi	r24, 0x01	; 1
 22e:	90 e0       	ldi	r25, 0x00	; 0
 230:	02 2e       	mov	r0, r18
 232:	02 c0       	rjmp	.+4      	; 0x238 <DIO_u8SetPinDirecton+0x1a6>
 234:	88 0f       	add	r24, r24
 236:	99 1f       	adc	r25, r25
 238:	0a 94       	dec	r0
 23a:	e2 f7       	brpl	.-8      	; 0x234 <DIO_u8SetPinDirecton+0x1a2>
 23c:	84 2b       	or	r24, r20
 23e:	8c 93       	st	X, r24
 240:	30 c0       	rjmp	.+96     	; 0x2a2 <DIO_u8SetPinDirecton+0x210>
			case DIO_u8PORTC: SET_BIT(DDRC,copy_u8Pin);break;
 242:	a4 e3       	ldi	r26, 0x34	; 52
 244:	b0 e0       	ldi	r27, 0x00	; 0
 246:	e4 e3       	ldi	r30, 0x34	; 52
 248:	f0 e0       	ldi	r31, 0x00	; 0
 24a:	80 81       	ld	r24, Z
 24c:	48 2f       	mov	r20, r24
 24e:	8b 81       	ldd	r24, Y+3	; 0x03
 250:	28 2f       	mov	r18, r24
 252:	30 e0       	ldi	r19, 0x00	; 0
 254:	81 e0       	ldi	r24, 0x01	; 1
 256:	90 e0       	ldi	r25, 0x00	; 0
 258:	02 2e       	mov	r0, r18
 25a:	02 c0       	rjmp	.+4      	; 0x260 <DIO_u8SetPinDirecton+0x1ce>
 25c:	88 0f       	add	r24, r24
 25e:	99 1f       	adc	r25, r25
 260:	0a 94       	dec	r0
 262:	e2 f7       	brpl	.-8      	; 0x25c <DIO_u8SetPinDirecton+0x1ca>
 264:	84 2b       	or	r24, r20
 266:	8c 93       	st	X, r24
 268:	1c c0       	rjmp	.+56     	; 0x2a2 <DIO_u8SetPinDirecton+0x210>
			case DIO_u8PORTD: SET_BIT(DDRD,copy_u8Pin);break;
 26a:	a1 e3       	ldi	r26, 0x31	; 49
 26c:	b0 e0       	ldi	r27, 0x00	; 0
 26e:	e1 e3       	ldi	r30, 0x31	; 49
 270:	f0 e0       	ldi	r31, 0x00	; 0
 272:	80 81       	ld	r24, Z
 274:	48 2f       	mov	r20, r24
 276:	8b 81       	ldd	r24, Y+3	; 0x03
 278:	28 2f       	mov	r18, r24
 27a:	30 e0       	ldi	r19, 0x00	; 0
 27c:	81 e0       	ldi	r24, 0x01	; 1
 27e:	90 e0       	ldi	r25, 0x00	; 0
 280:	02 2e       	mov	r0, r18
 282:	02 c0       	rjmp	.+4      	; 0x288 <DIO_u8SetPinDirecton+0x1f6>
 284:	88 0f       	add	r24, r24
 286:	99 1f       	adc	r25, r25
 288:	0a 94       	dec	r0
 28a:	e2 f7       	brpl	.-8      	; 0x284 <DIO_u8SetPinDirecton+0x1f2>
 28c:	84 2b       	or	r24, r20
 28e:	8c 93       	st	X, r24
 290:	08 c0       	rjmp	.+16     	; 0x2a2 <DIO_u8SetPinDirecton+0x210>
			default: Local_u8ErorrState =1;
 292:	81 e0       	ldi	r24, 0x01	; 1
 294:	89 83       	std	Y+1, r24	; 0x01
 296:	05 c0       	rjmp	.+10     	; 0x2a2 <DIO_u8SetPinDirecton+0x210>
			}
		}
		else
		{
			Local_u8ErorrState = 1;
 298:	81 e0       	ldi	r24, 0x01	; 1
 29a:	89 83       	std	Y+1, r24	; 0x01
 29c:	02 c0       	rjmp	.+4      	; 0x2a2 <DIO_u8SetPinDirecton+0x210>
		}
	}
	else
	{
		Local_u8ErorrState = 1;
 29e:	81 e0       	ldi	r24, 0x01	; 1
 2a0:	89 83       	std	Y+1, r24	; 0x01
	}

	return Local_u8ErorrState;
 2a2:	89 81       	ldd	r24, Y+1	; 0x01
}
 2a4:	28 96       	adiw	r28, 0x08	; 8
 2a6:	0f b6       	in	r0, 0x3f	; 63
 2a8:	f8 94       	cli
 2aa:	de bf       	out	0x3e, r29	; 62
 2ac:	0f be       	out	0x3f, r0	; 63
 2ae:	cd bf       	out	0x3d, r28	; 61
 2b0:	cf 91       	pop	r28
 2b2:	df 91       	pop	r29
 2b4:	08 95       	ret

000002b6 <DIO_u8SetPortDirecton>:
/*________________________________________________________________________*/
u8 DIO_u8SetPortDirecton(u8 copy_u8Port,u8 copy_u8Direction)
{
 2b6:	df 93       	push	r29
 2b8:	cf 93       	push	r28
 2ba:	00 d0       	rcall	.+0      	; 0x2bc <DIO_u8SetPortDirecton+0x6>
 2bc:	00 d0       	rcall	.+0      	; 0x2be <DIO_u8SetPortDirecton+0x8>
 2be:	0f 92       	push	r0
 2c0:	cd b7       	in	r28, 0x3d	; 61
 2c2:	de b7       	in	r29, 0x3e	; 62
 2c4:	8a 83       	std	Y+2, r24	; 0x02
 2c6:	6b 83       	std	Y+3, r22	; 0x03
	u8 Local_u8ErorrState=0;
 2c8:	19 82       	std	Y+1, r1	; 0x01
	switch(copy_u8Port)
 2ca:	8a 81       	ldd	r24, Y+2	; 0x02
 2cc:	28 2f       	mov	r18, r24
 2ce:	30 e0       	ldi	r19, 0x00	; 0
 2d0:	3d 83       	std	Y+5, r19	; 0x05
 2d2:	2c 83       	std	Y+4, r18	; 0x04
 2d4:	8c 81       	ldd	r24, Y+4	; 0x04
 2d6:	9d 81       	ldd	r25, Y+5	; 0x05
 2d8:	81 30       	cpi	r24, 0x01	; 1
 2da:	91 05       	cpc	r25, r1
 2dc:	d1 f0       	breq	.+52     	; 0x312 <DIO_u8SetPortDirecton+0x5c>
 2de:	2c 81       	ldd	r18, Y+4	; 0x04
 2e0:	3d 81       	ldd	r19, Y+5	; 0x05
 2e2:	22 30       	cpi	r18, 0x02	; 2
 2e4:	31 05       	cpc	r19, r1
 2e6:	2c f4       	brge	.+10     	; 0x2f2 <DIO_u8SetPortDirecton+0x3c>
 2e8:	8c 81       	ldd	r24, Y+4	; 0x04
 2ea:	9d 81       	ldd	r25, Y+5	; 0x05
 2ec:	00 97       	sbiw	r24, 0x00	; 0
 2ee:	61 f0       	breq	.+24     	; 0x308 <DIO_u8SetPortDirecton+0x52>
 2f0:	1f c0       	rjmp	.+62     	; 0x330 <DIO_u8SetPortDirecton+0x7a>
 2f2:	2c 81       	ldd	r18, Y+4	; 0x04
 2f4:	3d 81       	ldd	r19, Y+5	; 0x05
 2f6:	22 30       	cpi	r18, 0x02	; 2
 2f8:	31 05       	cpc	r19, r1
 2fa:	81 f0       	breq	.+32     	; 0x31c <DIO_u8SetPortDirecton+0x66>
 2fc:	8c 81       	ldd	r24, Y+4	; 0x04
 2fe:	9d 81       	ldd	r25, Y+5	; 0x05
 300:	83 30       	cpi	r24, 0x03	; 3
 302:	91 05       	cpc	r25, r1
 304:	81 f0       	breq	.+32     	; 0x326 <DIO_u8SetPortDirecton+0x70>
 306:	14 c0       	rjmp	.+40     	; 0x330 <DIO_u8SetPortDirecton+0x7a>
	{
	case DIO_u8PORTA: DDRA =copy_u8Direction;break;
 308:	ea e3       	ldi	r30, 0x3A	; 58
 30a:	f0 e0       	ldi	r31, 0x00	; 0
 30c:	8b 81       	ldd	r24, Y+3	; 0x03
 30e:	80 83       	st	Z, r24
 310:	11 c0       	rjmp	.+34     	; 0x334 <DIO_u8SetPortDirecton+0x7e>
	case DIO_u8PORTB: DDRB =copy_u8Direction;break;
 312:	e7 e3       	ldi	r30, 0x37	; 55
 314:	f0 e0       	ldi	r31, 0x00	; 0
 316:	8b 81       	ldd	r24, Y+3	; 0x03
 318:	80 83       	st	Z, r24
 31a:	0c c0       	rjmp	.+24     	; 0x334 <DIO_u8SetPortDirecton+0x7e>
	case DIO_u8PORTC: DDRC =copy_u8Direction;break;
 31c:	e4 e3       	ldi	r30, 0x34	; 52
 31e:	f0 e0       	ldi	r31, 0x00	; 0
 320:	8b 81       	ldd	r24, Y+3	; 0x03
 322:	80 83       	st	Z, r24
 324:	07 c0       	rjmp	.+14     	; 0x334 <DIO_u8SetPortDirecton+0x7e>
	case DIO_u8PORTD: DDRD =copy_u8Direction;break;
 326:	e1 e3       	ldi	r30, 0x31	; 49
 328:	f0 e0       	ldi	r31, 0x00	; 0
 32a:	8b 81       	ldd	r24, Y+3	; 0x03
 32c:	80 83       	st	Z, r24
 32e:	02 c0       	rjmp	.+4      	; 0x334 <DIO_u8SetPortDirecton+0x7e>
	default: Local_u8ErorrState=1;
 330:	81 e0       	ldi	r24, 0x01	; 1
 332:	89 83       	std	Y+1, r24	; 0x01
	}

	return Local_u8ErorrState;
 334:	89 81       	ldd	r24, Y+1	; 0x01

}
 336:	0f 90       	pop	r0
 338:	0f 90       	pop	r0
 33a:	0f 90       	pop	r0
 33c:	0f 90       	pop	r0
 33e:	0f 90       	pop	r0
 340:	cf 91       	pop	r28
 342:	df 91       	pop	r29
 344:	08 95       	ret

00000346 <DIO_u8SetPinValue>:

/*________________________________________________________________________*/

u8 DIO_u8SetPinValue(u8 copy_u8Port,u8 copy_u8Pin,u8 copy_u8Value)
{
 346:	df 93       	push	r29
 348:	cf 93       	push	r28
 34a:	cd b7       	in	r28, 0x3d	; 61
 34c:	de b7       	in	r29, 0x3e	; 62
 34e:	28 97       	sbiw	r28, 0x08	; 8
 350:	0f b6       	in	r0, 0x3f	; 63
 352:	f8 94       	cli
 354:	de bf       	out	0x3e, r29	; 62
 356:	0f be       	out	0x3f, r0	; 63
 358:	cd bf       	out	0x3d, r28	; 61
 35a:	8a 83       	std	Y+2, r24	; 0x02
 35c:	6b 83       	std	Y+3, r22	; 0x03
 35e:	4c 83       	std	Y+4, r20	; 0x04
	u8 Local_u8ErorrState=0;
 360:	19 82       	std	Y+1, r1	; 0x01
	if(copy_u8Pin<=7)
 362:	8b 81       	ldd	r24, Y+3	; 0x03
 364:	88 30       	cpi	r24, 0x08	; 8
 366:	08 f0       	brcs	.+2      	; 0x36a <DIO_u8SetPinValue+0x24>
 368:	f4 c0       	rjmp	.+488    	; 0x552 <DIO_u8SetPinValue+0x20c>
	{
		if(copy_u8Value==DIO_u8PIN_LOW)
 36a:	8c 81       	ldd	r24, Y+4	; 0x04
 36c:	88 23       	and	r24, r24
 36e:	09 f0       	breq	.+2      	; 0x372 <DIO_u8SetPinValue+0x2c>
 370:	77 c0       	rjmp	.+238    	; 0x460 <DIO_u8SetPinValue+0x11a>
		{
			switch(copy_u8Port)
 372:	8a 81       	ldd	r24, Y+2	; 0x02
 374:	28 2f       	mov	r18, r24
 376:	30 e0       	ldi	r19, 0x00	; 0
 378:	38 87       	std	Y+8, r19	; 0x08
 37a:	2f 83       	std	Y+7, r18	; 0x07
 37c:	8f 81       	ldd	r24, Y+7	; 0x07
 37e:	98 85       	ldd	r25, Y+8	; 0x08
 380:	81 30       	cpi	r24, 0x01	; 1
 382:	91 05       	cpc	r25, r1
 384:	59 f1       	breq	.+86     	; 0x3dc <DIO_u8SetPinValue+0x96>
 386:	2f 81       	ldd	r18, Y+7	; 0x07
 388:	38 85       	ldd	r19, Y+8	; 0x08
 38a:	22 30       	cpi	r18, 0x02	; 2
 38c:	31 05       	cpc	r19, r1
 38e:	2c f4       	brge	.+10     	; 0x39a <DIO_u8SetPinValue+0x54>
 390:	8f 81       	ldd	r24, Y+7	; 0x07
 392:	98 85       	ldd	r25, Y+8	; 0x08
 394:	00 97       	sbiw	r24, 0x00	; 0
 396:	69 f0       	breq	.+26     	; 0x3b2 <DIO_u8SetPinValue+0x6c>
 398:	60 c0       	rjmp	.+192    	; 0x45a <DIO_u8SetPinValue+0x114>
 39a:	2f 81       	ldd	r18, Y+7	; 0x07
 39c:	38 85       	ldd	r19, Y+8	; 0x08
 39e:	22 30       	cpi	r18, 0x02	; 2
 3a0:	31 05       	cpc	r19, r1
 3a2:	89 f1       	breq	.+98     	; 0x406 <DIO_u8SetPinValue+0xc0>
 3a4:	8f 81       	ldd	r24, Y+7	; 0x07
 3a6:	98 85       	ldd	r25, Y+8	; 0x08
 3a8:	83 30       	cpi	r24, 0x03	; 3
 3aa:	91 05       	cpc	r25, r1
 3ac:	09 f4       	brne	.+2      	; 0x3b0 <DIO_u8SetPinValue+0x6a>
 3ae:	40 c0       	rjmp	.+128    	; 0x430 <DIO_u8SetPinValue+0xea>
 3b0:	54 c0       	rjmp	.+168    	; 0x45a <DIO_u8SetPinValue+0x114>
			{
			case DIO_u8PORTA: CLR_BIT(PORTA,copy_u8Pin);break;
 3b2:	ab e3       	ldi	r26, 0x3B	; 59
 3b4:	b0 e0       	ldi	r27, 0x00	; 0
 3b6:	eb e3       	ldi	r30, 0x3B	; 59
 3b8:	f0 e0       	ldi	r31, 0x00	; 0
 3ba:	80 81       	ld	r24, Z
 3bc:	48 2f       	mov	r20, r24
 3be:	8b 81       	ldd	r24, Y+3	; 0x03
 3c0:	28 2f       	mov	r18, r24
 3c2:	30 e0       	ldi	r19, 0x00	; 0
 3c4:	81 e0       	ldi	r24, 0x01	; 1
 3c6:	90 e0       	ldi	r25, 0x00	; 0
 3c8:	02 2e       	mov	r0, r18
 3ca:	02 c0       	rjmp	.+4      	; 0x3d0 <DIO_u8SetPinValue+0x8a>
 3cc:	88 0f       	add	r24, r24
 3ce:	99 1f       	adc	r25, r25
 3d0:	0a 94       	dec	r0
 3d2:	e2 f7       	brpl	.-8      	; 0x3cc <DIO_u8SetPinValue+0x86>
 3d4:	80 95       	com	r24
 3d6:	84 23       	and	r24, r20
 3d8:	8c 93       	st	X, r24
 3da:	bd c0       	rjmp	.+378    	; 0x556 <DIO_u8SetPinValue+0x210>
			case DIO_u8PORTB: CLR_BIT(PORTB,copy_u8Pin);break;
 3dc:	a8 e3       	ldi	r26, 0x38	; 56
 3de:	b0 e0       	ldi	r27, 0x00	; 0
 3e0:	e8 e3       	ldi	r30, 0x38	; 56
 3e2:	f0 e0       	ldi	r31, 0x00	; 0
 3e4:	80 81       	ld	r24, Z
 3e6:	48 2f       	mov	r20, r24
 3e8:	8b 81       	ldd	r24, Y+3	; 0x03
 3ea:	28 2f       	mov	r18, r24
 3ec:	30 e0       	ldi	r19, 0x00	; 0
 3ee:	81 e0       	ldi	r24, 0x01	; 1
 3f0:	90 e0       	ldi	r25, 0x00	; 0
 3f2:	02 2e       	mov	r0, r18
 3f4:	02 c0       	rjmp	.+4      	; 0x3fa <DIO_u8SetPinValue+0xb4>
 3f6:	88 0f       	add	r24, r24
 3f8:	99 1f       	adc	r25, r25
 3fa:	0a 94       	dec	r0
 3fc:	e2 f7       	brpl	.-8      	; 0x3f6 <DIO_u8SetPinValue+0xb0>
 3fe:	80 95       	com	r24
 400:	84 23       	and	r24, r20
 402:	8c 93       	st	X, r24
 404:	a8 c0       	rjmp	.+336    	; 0x556 <DIO_u8SetPinValue+0x210>
			case DIO_u8PORTC: CLR_BIT(PORTC,copy_u8Pin);break;
 406:	a5 e3       	ldi	r26, 0x35	; 53
 408:	b0 e0       	ldi	r27, 0x00	; 0
 40a:	e5 e3       	ldi	r30, 0x35	; 53
 40c:	f0 e0       	ldi	r31, 0x00	; 0
 40e:	80 81       	ld	r24, Z
 410:	48 2f       	mov	r20, r24
 412:	8b 81       	ldd	r24, Y+3	; 0x03
 414:	28 2f       	mov	r18, r24
 416:	30 e0       	ldi	r19, 0x00	; 0
 418:	81 e0       	ldi	r24, 0x01	; 1
 41a:	90 e0       	ldi	r25, 0x00	; 0
 41c:	02 2e       	mov	r0, r18
 41e:	02 c0       	rjmp	.+4      	; 0x424 <DIO_u8SetPinValue+0xde>
 420:	88 0f       	add	r24, r24
 422:	99 1f       	adc	r25, r25
 424:	0a 94       	dec	r0
 426:	e2 f7       	brpl	.-8      	; 0x420 <DIO_u8SetPinValue+0xda>
 428:	80 95       	com	r24
 42a:	84 23       	and	r24, r20
 42c:	8c 93       	st	X, r24
 42e:	93 c0       	rjmp	.+294    	; 0x556 <DIO_u8SetPinValue+0x210>
			case DIO_u8PORTD: CLR_BIT(PORTD,copy_u8Pin);break;
 430:	a2 e3       	ldi	r26, 0x32	; 50
 432:	b0 e0       	ldi	r27, 0x00	; 0
 434:	e2 e3       	ldi	r30, 0x32	; 50
 436:	f0 e0       	ldi	r31, 0x00	; 0
 438:	80 81       	ld	r24, Z
 43a:	48 2f       	mov	r20, r24
 43c:	8b 81       	ldd	r24, Y+3	; 0x03
 43e:	28 2f       	mov	r18, r24
 440:	30 e0       	ldi	r19, 0x00	; 0
 442:	81 e0       	ldi	r24, 0x01	; 1
 444:	90 e0       	ldi	r25, 0x00	; 0
 446:	02 2e       	mov	r0, r18
 448:	02 c0       	rjmp	.+4      	; 0x44e <DIO_u8SetPinValue+0x108>
 44a:	88 0f       	add	r24, r24
 44c:	99 1f       	adc	r25, r25
 44e:	0a 94       	dec	r0
 450:	e2 f7       	brpl	.-8      	; 0x44a <DIO_u8SetPinValue+0x104>
 452:	80 95       	com	r24
 454:	84 23       	and	r24, r20
 456:	8c 93       	st	X, r24
 458:	7e c0       	rjmp	.+252    	; 0x556 <DIO_u8SetPinValue+0x210>
			default: Local_u8ErorrState =1;
 45a:	81 e0       	ldi	r24, 0x01	; 1
 45c:	89 83       	std	Y+1, r24	; 0x01
 45e:	7b c0       	rjmp	.+246    	; 0x556 <DIO_u8SetPinValue+0x210>
			}
		}
		else if (copy_u8Value==DIO_u8PIN_HIGH)
 460:	8c 81       	ldd	r24, Y+4	; 0x04
 462:	81 30       	cpi	r24, 0x01	; 1
 464:	09 f0       	breq	.+2      	; 0x468 <DIO_u8SetPinValue+0x122>
 466:	72 c0       	rjmp	.+228    	; 0x54c <DIO_u8SetPinValue+0x206>
		{
			switch(copy_u8Port)
 468:	8a 81       	ldd	r24, Y+2	; 0x02
 46a:	28 2f       	mov	r18, r24
 46c:	30 e0       	ldi	r19, 0x00	; 0
 46e:	3e 83       	std	Y+6, r19	; 0x06
 470:	2d 83       	std	Y+5, r18	; 0x05
 472:	8d 81       	ldd	r24, Y+5	; 0x05
 474:	9e 81       	ldd	r25, Y+6	; 0x06
 476:	81 30       	cpi	r24, 0x01	; 1
 478:	91 05       	cpc	r25, r1
 47a:	49 f1       	breq	.+82     	; 0x4ce <DIO_u8SetPinValue+0x188>
 47c:	2d 81       	ldd	r18, Y+5	; 0x05
 47e:	3e 81       	ldd	r19, Y+6	; 0x06
 480:	22 30       	cpi	r18, 0x02	; 2
 482:	31 05       	cpc	r19, r1
 484:	2c f4       	brge	.+10     	; 0x490 <DIO_u8SetPinValue+0x14a>
 486:	8d 81       	ldd	r24, Y+5	; 0x05
 488:	9e 81       	ldd	r25, Y+6	; 0x06
 48a:	00 97       	sbiw	r24, 0x00	; 0
 48c:	61 f0       	breq	.+24     	; 0x4a6 <DIO_u8SetPinValue+0x160>
 48e:	5b c0       	rjmp	.+182    	; 0x546 <DIO_u8SetPinValue+0x200>
 490:	2d 81       	ldd	r18, Y+5	; 0x05
 492:	3e 81       	ldd	r19, Y+6	; 0x06
 494:	22 30       	cpi	r18, 0x02	; 2
 496:	31 05       	cpc	r19, r1
 498:	71 f1       	breq	.+92     	; 0x4f6 <DIO_u8SetPinValue+0x1b0>
 49a:	8d 81       	ldd	r24, Y+5	; 0x05
 49c:	9e 81       	ldd	r25, Y+6	; 0x06
 49e:	83 30       	cpi	r24, 0x03	; 3
 4a0:	91 05       	cpc	r25, r1
 4a2:	e9 f1       	breq	.+122    	; 0x51e <DIO_u8SetPinValue+0x1d8>
 4a4:	50 c0       	rjmp	.+160    	; 0x546 <DIO_u8SetPinValue+0x200>
			{
			case DIO_u8PORTA: SET_BIT(PORTA,copy_u8Pin);break;
 4a6:	ab e3       	ldi	r26, 0x3B	; 59
 4a8:	b0 e0       	ldi	r27, 0x00	; 0
 4aa:	eb e3       	ldi	r30, 0x3B	; 59
 4ac:	f0 e0       	ldi	r31, 0x00	; 0
 4ae:	80 81       	ld	r24, Z
 4b0:	48 2f       	mov	r20, r24
 4b2:	8b 81       	ldd	r24, Y+3	; 0x03
 4b4:	28 2f       	mov	r18, r24
 4b6:	30 e0       	ldi	r19, 0x00	; 0
 4b8:	81 e0       	ldi	r24, 0x01	; 1
 4ba:	90 e0       	ldi	r25, 0x00	; 0
 4bc:	02 2e       	mov	r0, r18
 4be:	02 c0       	rjmp	.+4      	; 0x4c4 <DIO_u8SetPinValue+0x17e>
 4c0:	88 0f       	add	r24, r24
 4c2:	99 1f       	adc	r25, r25
 4c4:	0a 94       	dec	r0
 4c6:	e2 f7       	brpl	.-8      	; 0x4c0 <DIO_u8SetPinValue+0x17a>
 4c8:	84 2b       	or	r24, r20
 4ca:	8c 93       	st	X, r24
 4cc:	44 c0       	rjmp	.+136    	; 0x556 <DIO_u8SetPinValue+0x210>
			case DIO_u8PORTB: SET_BIT(PORTB,copy_u8Pin);break;
 4ce:	a8 e3       	ldi	r26, 0x38	; 56
 4d0:	b0 e0       	ldi	r27, 0x00	; 0
 4d2:	e8 e3       	ldi	r30, 0x38	; 56
 4d4:	f0 e0       	ldi	r31, 0x00	; 0
 4d6:	80 81       	ld	r24, Z
 4d8:	48 2f       	mov	r20, r24
 4da:	8b 81       	ldd	r24, Y+3	; 0x03
 4dc:	28 2f       	mov	r18, r24
 4de:	30 e0       	ldi	r19, 0x00	; 0
 4e0:	81 e0       	ldi	r24, 0x01	; 1
 4e2:	90 e0       	ldi	r25, 0x00	; 0
 4e4:	02 2e       	mov	r0, r18
 4e6:	02 c0       	rjmp	.+4      	; 0x4ec <DIO_u8SetPinValue+0x1a6>
 4e8:	88 0f       	add	r24, r24
 4ea:	99 1f       	adc	r25, r25
 4ec:	0a 94       	dec	r0
 4ee:	e2 f7       	brpl	.-8      	; 0x4e8 <DIO_u8SetPinValue+0x1a2>
 4f0:	84 2b       	or	r24, r20
 4f2:	8c 93       	st	X, r24
 4f4:	30 c0       	rjmp	.+96     	; 0x556 <DIO_u8SetPinValue+0x210>
			case DIO_u8PORTC: SET_BIT(PORTC,copy_u8Pin);break;
 4f6:	a5 e3       	ldi	r26, 0x35	; 53
 4f8:	b0 e0       	ldi	r27, 0x00	; 0
 4fa:	e5 e3       	ldi	r30, 0x35	; 53
 4fc:	f0 e0       	ldi	r31, 0x00	; 0
 4fe:	80 81       	ld	r24, Z
 500:	48 2f       	mov	r20, r24
 502:	8b 81       	ldd	r24, Y+3	; 0x03
 504:	28 2f       	mov	r18, r24
 506:	30 e0       	ldi	r19, 0x00	; 0
 508:	81 e0       	ldi	r24, 0x01	; 1
 50a:	90 e0       	ldi	r25, 0x00	; 0
 50c:	02 2e       	mov	r0, r18
 50e:	02 c0       	rjmp	.+4      	; 0x514 <DIO_u8SetPinValue+0x1ce>
 510:	88 0f       	add	r24, r24
 512:	99 1f       	adc	r25, r25
 514:	0a 94       	dec	r0
 516:	e2 f7       	brpl	.-8      	; 0x510 <DIO_u8SetPinValue+0x1ca>
 518:	84 2b       	or	r24, r20
 51a:	8c 93       	st	X, r24
 51c:	1c c0       	rjmp	.+56     	; 0x556 <DIO_u8SetPinValue+0x210>
			case DIO_u8PORTD: SET_BIT(PORTD,copy_u8Pin);break;
 51e:	a2 e3       	ldi	r26, 0x32	; 50
 520:	b0 e0       	ldi	r27, 0x00	; 0
 522:	e2 e3       	ldi	r30, 0x32	; 50
 524:	f0 e0       	ldi	r31, 0x00	; 0
 526:	80 81       	ld	r24, Z
 528:	48 2f       	mov	r20, r24
 52a:	8b 81       	ldd	r24, Y+3	; 0x03
 52c:	28 2f       	mov	r18, r24
 52e:	30 e0       	ldi	r19, 0x00	; 0
 530:	81 e0       	ldi	r24, 0x01	; 1
 532:	90 e0       	ldi	r25, 0x00	; 0
 534:	02 2e       	mov	r0, r18
 536:	02 c0       	rjmp	.+4      	; 0x53c <DIO_u8SetPinValue+0x1f6>
 538:	88 0f       	add	r24, r24
 53a:	99 1f       	adc	r25, r25
 53c:	0a 94       	dec	r0
 53e:	e2 f7       	brpl	.-8      	; 0x538 <DIO_u8SetPinValue+0x1f2>
 540:	84 2b       	or	r24, r20
 542:	8c 93       	st	X, r24
 544:	08 c0       	rjmp	.+16     	; 0x556 <DIO_u8SetPinValue+0x210>
			default: Local_u8ErorrState =1;
 546:	81 e0       	ldi	r24, 0x01	; 1
 548:	89 83       	std	Y+1, r24	; 0x01
 54a:	05 c0       	rjmp	.+10     	; 0x556 <DIO_u8SetPinValue+0x210>
			}
		}
		else
		{
			Local_u8ErorrState =1;
 54c:	81 e0       	ldi	r24, 0x01	; 1
 54e:	89 83       	std	Y+1, r24	; 0x01
 550:	02 c0       	rjmp	.+4      	; 0x556 <DIO_u8SetPinValue+0x210>
		}

	}
	else
	{
		Local_u8ErorrState = 1;
 552:	81 e0       	ldi	r24, 0x01	; 1
 554:	89 83       	std	Y+1, r24	; 0x01
	}


	return Local_u8ErorrState;
 556:	89 81       	ldd	r24, Y+1	; 0x01
}
 558:	28 96       	adiw	r28, 0x08	; 8
 55a:	0f b6       	in	r0, 0x3f	; 63
 55c:	f8 94       	cli
 55e:	de bf       	out	0x3e, r29	; 62
 560:	0f be       	out	0x3f, r0	; 63
 562:	cd bf       	out	0x3d, r28	; 61
 564:	cf 91       	pop	r28
 566:	df 91       	pop	r29
 568:	08 95       	ret

0000056a <DIO_u8SetPortValue>:
/*_______________________________________________________________________*/
u8 DIO_u8SetPortValue(u8 copy_u8Port,u8 copy_u8Value)
{
 56a:	df 93       	push	r29
 56c:	cf 93       	push	r28
 56e:	00 d0       	rcall	.+0      	; 0x570 <DIO_u8SetPortValue+0x6>
 570:	00 d0       	rcall	.+0      	; 0x572 <DIO_u8SetPortValue+0x8>
 572:	0f 92       	push	r0
 574:	cd b7       	in	r28, 0x3d	; 61
 576:	de b7       	in	r29, 0x3e	; 62
 578:	8a 83       	std	Y+2, r24	; 0x02
 57a:	6b 83       	std	Y+3, r22	; 0x03
	u8 Local_u8ErorrState=0;
 57c:	19 82       	std	Y+1, r1	; 0x01
		switch(copy_u8Port)
 57e:	8a 81       	ldd	r24, Y+2	; 0x02
 580:	28 2f       	mov	r18, r24
 582:	30 e0       	ldi	r19, 0x00	; 0
 584:	3d 83       	std	Y+5, r19	; 0x05
 586:	2c 83       	std	Y+4, r18	; 0x04
 588:	8c 81       	ldd	r24, Y+4	; 0x04
 58a:	9d 81       	ldd	r25, Y+5	; 0x05
 58c:	81 30       	cpi	r24, 0x01	; 1
 58e:	91 05       	cpc	r25, r1
 590:	d1 f0       	breq	.+52     	; 0x5c6 <DIO_u8SetPortValue+0x5c>
 592:	2c 81       	ldd	r18, Y+4	; 0x04
 594:	3d 81       	ldd	r19, Y+5	; 0x05
 596:	22 30       	cpi	r18, 0x02	; 2
 598:	31 05       	cpc	r19, r1
 59a:	2c f4       	brge	.+10     	; 0x5a6 <DIO_u8SetPortValue+0x3c>
 59c:	8c 81       	ldd	r24, Y+4	; 0x04
 59e:	9d 81       	ldd	r25, Y+5	; 0x05
 5a0:	00 97       	sbiw	r24, 0x00	; 0
 5a2:	61 f0       	breq	.+24     	; 0x5bc <DIO_u8SetPortValue+0x52>
 5a4:	1f c0       	rjmp	.+62     	; 0x5e4 <DIO_u8SetPortValue+0x7a>
 5a6:	2c 81       	ldd	r18, Y+4	; 0x04
 5a8:	3d 81       	ldd	r19, Y+5	; 0x05
 5aa:	22 30       	cpi	r18, 0x02	; 2
 5ac:	31 05       	cpc	r19, r1
 5ae:	81 f0       	breq	.+32     	; 0x5d0 <DIO_u8SetPortValue+0x66>
 5b0:	8c 81       	ldd	r24, Y+4	; 0x04
 5b2:	9d 81       	ldd	r25, Y+5	; 0x05
 5b4:	83 30       	cpi	r24, 0x03	; 3
 5b6:	91 05       	cpc	r25, r1
 5b8:	81 f0       	breq	.+32     	; 0x5da <DIO_u8SetPortValue+0x70>
 5ba:	14 c0       	rjmp	.+40     	; 0x5e4 <DIO_u8SetPortValue+0x7a>
		{
		case DIO_u8PORTA: PORTA =copy_u8Value;break;
 5bc:	eb e3       	ldi	r30, 0x3B	; 59
 5be:	f0 e0       	ldi	r31, 0x00	; 0
 5c0:	8b 81       	ldd	r24, Y+3	; 0x03
 5c2:	80 83       	st	Z, r24
 5c4:	11 c0       	rjmp	.+34     	; 0x5e8 <DIO_u8SetPortValue+0x7e>
		case DIO_u8PORTB: PORTB =copy_u8Value;break;
 5c6:	e8 e3       	ldi	r30, 0x38	; 56
 5c8:	f0 e0       	ldi	r31, 0x00	; 0
 5ca:	8b 81       	ldd	r24, Y+3	; 0x03
 5cc:	80 83       	st	Z, r24
 5ce:	0c c0       	rjmp	.+24     	; 0x5e8 <DIO_u8SetPortValue+0x7e>
		case DIO_u8PORTC: PORTC =copy_u8Value;break;
 5d0:	e5 e3       	ldi	r30, 0x35	; 53
 5d2:	f0 e0       	ldi	r31, 0x00	; 0
 5d4:	8b 81       	ldd	r24, Y+3	; 0x03
 5d6:	80 83       	st	Z, r24
 5d8:	07 c0       	rjmp	.+14     	; 0x5e8 <DIO_u8SetPortValue+0x7e>
		case DIO_u8PORTD: PORTD =copy_u8Value;break;
 5da:	e2 e3       	ldi	r30, 0x32	; 50
 5dc:	f0 e0       	ldi	r31, 0x00	; 0
 5de:	8b 81       	ldd	r24, Y+3	; 0x03
 5e0:	80 83       	st	Z, r24
 5e2:	02 c0       	rjmp	.+4      	; 0x5e8 <DIO_u8SetPortValue+0x7e>
		default: Local_u8ErorrState=1;
 5e4:	81 e0       	ldi	r24, 0x01	; 1
 5e6:	89 83       	std	Y+1, r24	; 0x01
		}

		return Local_u8ErorrState;
 5e8:	89 81       	ldd	r24, Y+1	; 0x01

}
 5ea:	0f 90       	pop	r0
 5ec:	0f 90       	pop	r0
 5ee:	0f 90       	pop	r0
 5f0:	0f 90       	pop	r0
 5f2:	0f 90       	pop	r0
 5f4:	cf 91       	pop	r28
 5f6:	df 91       	pop	r29
 5f8:	08 95       	ret

000005fa <DIO_u8GetPinValue>:

u8 DIO_u8GetPinValue(u8 copy_u8Port,u8 copy_u8Pin,u8* copy_pu8Value)
{
 5fa:	df 93       	push	r29
 5fc:	cf 93       	push	r28
 5fe:	cd b7       	in	r28, 0x3d	; 61
 600:	de b7       	in	r29, 0x3e	; 62
 602:	27 97       	sbiw	r28, 0x07	; 7
 604:	0f b6       	in	r0, 0x3f	; 63
 606:	f8 94       	cli
 608:	de bf       	out	0x3e, r29	; 62
 60a:	0f be       	out	0x3f, r0	; 63
 60c:	cd bf       	out	0x3d, r28	; 61
 60e:	8a 83       	std	Y+2, r24	; 0x02
 610:	6b 83       	std	Y+3, r22	; 0x03
 612:	5d 83       	std	Y+5, r21	; 0x05
 614:	4c 83       	std	Y+4, r20	; 0x04
u8 Local_u8ErorrState=0;
 616:	19 82       	std	Y+1, r1	; 0x01
if(copy_u8Pin<=DIO_u8PIN7 && *copy_pu8Value!=NULL)
 618:	8b 81       	ldd	r24, Y+3	; 0x03
 61a:	88 30       	cpi	r24, 0x08	; 8
 61c:	08 f0       	brcs	.+2      	; 0x620 <DIO_u8GetPinValue+0x26>
 61e:	7c c0       	rjmp	.+248    	; 0x718 <DIO_u8GetPinValue+0x11e>
 620:	ec 81       	ldd	r30, Y+4	; 0x04
 622:	fd 81       	ldd	r31, Y+5	; 0x05
 624:	80 81       	ld	r24, Z
 626:	88 2f       	mov	r24, r24
 628:	90 e0       	ldi	r25, 0x00	; 0
 62a:	00 97       	sbiw	r24, 0x00	; 0
 62c:	09 f4       	brne	.+2      	; 0x630 <DIO_u8GetPinValue+0x36>
 62e:	74 c0       	rjmp	.+232    	; 0x718 <DIO_u8GetPinValue+0x11e>
{
	switch(copy_u8Port)
 630:	8a 81       	ldd	r24, Y+2	; 0x02
 632:	28 2f       	mov	r18, r24
 634:	30 e0       	ldi	r19, 0x00	; 0
 636:	3f 83       	std	Y+7, r19	; 0x07
 638:	2e 83       	std	Y+6, r18	; 0x06
 63a:	4e 81       	ldd	r20, Y+6	; 0x06
 63c:	5f 81       	ldd	r21, Y+7	; 0x07
 63e:	41 30       	cpi	r20, 0x01	; 1
 640:	51 05       	cpc	r21, r1
 642:	59 f1       	breq	.+86     	; 0x69a <DIO_u8GetPinValue+0xa0>
 644:	8e 81       	ldd	r24, Y+6	; 0x06
 646:	9f 81       	ldd	r25, Y+7	; 0x07
 648:	82 30       	cpi	r24, 0x02	; 2
 64a:	91 05       	cpc	r25, r1
 64c:	34 f4       	brge	.+12     	; 0x65a <DIO_u8GetPinValue+0x60>
 64e:	2e 81       	ldd	r18, Y+6	; 0x06
 650:	3f 81       	ldd	r19, Y+7	; 0x07
 652:	21 15       	cp	r18, r1
 654:	31 05       	cpc	r19, r1
 656:	69 f0       	breq	.+26     	; 0x672 <DIO_u8GetPinValue+0x78>
 658:	5c c0       	rjmp	.+184    	; 0x712 <DIO_u8GetPinValue+0x118>
 65a:	4e 81       	ldd	r20, Y+6	; 0x06
 65c:	5f 81       	ldd	r21, Y+7	; 0x07
 65e:	42 30       	cpi	r20, 0x02	; 2
 660:	51 05       	cpc	r21, r1
 662:	79 f1       	breq	.+94     	; 0x6c2 <DIO_u8GetPinValue+0xc8>
 664:	8e 81       	ldd	r24, Y+6	; 0x06
 666:	9f 81       	ldd	r25, Y+7	; 0x07
 668:	83 30       	cpi	r24, 0x03	; 3
 66a:	91 05       	cpc	r25, r1
 66c:	09 f4       	brne	.+2      	; 0x670 <DIO_u8GetPinValue+0x76>
 66e:	3d c0       	rjmp	.+122    	; 0x6ea <DIO_u8GetPinValue+0xf0>
 670:	50 c0       	rjmp	.+160    	; 0x712 <DIO_u8GetPinValue+0x118>
	{
	case DIO_u8PORTA:*copy_pu8Value = GET_BIT(PINA,copy_u8Pin);break;
 672:	e9 e3       	ldi	r30, 0x39	; 57
 674:	f0 e0       	ldi	r31, 0x00	; 0
 676:	80 81       	ld	r24, Z
 678:	28 2f       	mov	r18, r24
 67a:	30 e0       	ldi	r19, 0x00	; 0
 67c:	8b 81       	ldd	r24, Y+3	; 0x03
 67e:	88 2f       	mov	r24, r24
 680:	90 e0       	ldi	r25, 0x00	; 0
 682:	a9 01       	movw	r20, r18
 684:	02 c0       	rjmp	.+4      	; 0x68a <DIO_u8GetPinValue+0x90>
 686:	55 95       	asr	r21
 688:	47 95       	ror	r20
 68a:	8a 95       	dec	r24
 68c:	e2 f7       	brpl	.-8      	; 0x686 <DIO_u8GetPinValue+0x8c>
 68e:	ca 01       	movw	r24, r20
 690:	81 70       	andi	r24, 0x01	; 1
 692:	ec 81       	ldd	r30, Y+4	; 0x04
 694:	fd 81       	ldd	r31, Y+5	; 0x05
 696:	80 83       	st	Z, r24
 698:	41 c0       	rjmp	.+130    	; 0x71c <DIO_u8GetPinValue+0x122>
	case DIO_u8PORTB:*copy_pu8Value = GET_BIT(PINB,copy_u8Pin);break;
 69a:	e6 e3       	ldi	r30, 0x36	; 54
 69c:	f0 e0       	ldi	r31, 0x00	; 0
 69e:	80 81       	ld	r24, Z
 6a0:	28 2f       	mov	r18, r24
 6a2:	30 e0       	ldi	r19, 0x00	; 0
 6a4:	8b 81       	ldd	r24, Y+3	; 0x03
 6a6:	88 2f       	mov	r24, r24
 6a8:	90 e0       	ldi	r25, 0x00	; 0
 6aa:	a9 01       	movw	r20, r18
 6ac:	02 c0       	rjmp	.+4      	; 0x6b2 <DIO_u8GetPinValue+0xb8>
 6ae:	55 95       	asr	r21
 6b0:	47 95       	ror	r20
 6b2:	8a 95       	dec	r24
 6b4:	e2 f7       	brpl	.-8      	; 0x6ae <DIO_u8GetPinValue+0xb4>
 6b6:	ca 01       	movw	r24, r20
 6b8:	81 70       	andi	r24, 0x01	; 1
 6ba:	ec 81       	ldd	r30, Y+4	; 0x04
 6bc:	fd 81       	ldd	r31, Y+5	; 0x05
 6be:	80 83       	st	Z, r24
 6c0:	2d c0       	rjmp	.+90     	; 0x71c <DIO_u8GetPinValue+0x122>
	case DIO_u8PORTC:*copy_pu8Value = GET_BIT(PINC,copy_u8Pin);break;
 6c2:	e3 e3       	ldi	r30, 0x33	; 51
 6c4:	f0 e0       	ldi	r31, 0x00	; 0
 6c6:	80 81       	ld	r24, Z
 6c8:	28 2f       	mov	r18, r24
 6ca:	30 e0       	ldi	r19, 0x00	; 0
 6cc:	8b 81       	ldd	r24, Y+3	; 0x03
 6ce:	88 2f       	mov	r24, r24
 6d0:	90 e0       	ldi	r25, 0x00	; 0
 6d2:	a9 01       	movw	r20, r18
 6d4:	02 c0       	rjmp	.+4      	; 0x6da <DIO_u8GetPinValue+0xe0>
 6d6:	55 95       	asr	r21
 6d8:	47 95       	ror	r20
 6da:	8a 95       	dec	r24
 6dc:	e2 f7       	brpl	.-8      	; 0x6d6 <DIO_u8GetPinValue+0xdc>
 6de:	ca 01       	movw	r24, r20
 6e0:	81 70       	andi	r24, 0x01	; 1
 6e2:	ec 81       	ldd	r30, Y+4	; 0x04
 6e4:	fd 81       	ldd	r31, Y+5	; 0x05
 6e6:	80 83       	st	Z, r24
 6e8:	19 c0       	rjmp	.+50     	; 0x71c <DIO_u8GetPinValue+0x122>
	case DIO_u8PORTD:*copy_pu8Value = GET_BIT(PIND,copy_u8Pin);break;
 6ea:	e0 e3       	ldi	r30, 0x30	; 48
 6ec:	f0 e0       	ldi	r31, 0x00	; 0
 6ee:	80 81       	ld	r24, Z
 6f0:	28 2f       	mov	r18, r24
 6f2:	30 e0       	ldi	r19, 0x00	; 0
 6f4:	8b 81       	ldd	r24, Y+3	; 0x03
 6f6:	88 2f       	mov	r24, r24
 6f8:	90 e0       	ldi	r25, 0x00	; 0
 6fa:	a9 01       	movw	r20, r18
 6fc:	02 c0       	rjmp	.+4      	; 0x702 <DIO_u8GetPinValue+0x108>
 6fe:	55 95       	asr	r21
 700:	47 95       	ror	r20
 702:	8a 95       	dec	r24
 704:	e2 f7       	brpl	.-8      	; 0x6fe <DIO_u8GetPinValue+0x104>
 706:	ca 01       	movw	r24, r20
 708:	81 70       	andi	r24, 0x01	; 1
 70a:	ec 81       	ldd	r30, Y+4	; 0x04
 70c:	fd 81       	ldd	r31, Y+5	; 0x05
 70e:	80 83       	st	Z, r24
 710:	05 c0       	rjmp	.+10     	; 0x71c <DIO_u8GetPinValue+0x122>
	default: Local_u8ErorrState=1;
 712:	81 e0       	ldi	r24, 0x01	; 1
 714:	89 83       	std	Y+1, r24	; 0x01
 716:	02 c0       	rjmp	.+4      	; 0x71c <DIO_u8GetPinValue+0x122>
	}
}
else
{
	Local_u8ErorrState = 1;
 718:	81 e0       	ldi	r24, 0x01	; 1
 71a:	89 83       	std	Y+1, r24	; 0x01
}
return Local_u8ErorrState;
 71c:	89 81       	ldd	r24, Y+1	; 0x01

}
 71e:	27 96       	adiw	r28, 0x07	; 7
 720:	0f b6       	in	r0, 0x3f	; 63
 722:	f8 94       	cli
 724:	de bf       	out	0x3e, r29	; 62
 726:	0f be       	out	0x3f, r0	; 63
 728:	cd bf       	out	0x3d, r28	; 61
 72a:	cf 91       	pop	r28
 72c:	df 91       	pop	r29
 72e:	08 95       	ret

00000730 <GIE_voidEnable>:
#include "BIT_MATH.h"
#include"GIE_interface.h"
#include"GIE_register.h"

void GIE_voidEnable(void)
{
 730:	df 93       	push	r29
 732:	cf 93       	push	r28
 734:	cd b7       	in	r28, 0x3d	; 61
 736:	de b7       	in	r29, 0x3e	; 62
	SET_BIT(SREG,SREG_I);
 738:	af e5       	ldi	r26, 0x5F	; 95
 73a:	b0 e0       	ldi	r27, 0x00	; 0
 73c:	ef e5       	ldi	r30, 0x5F	; 95
 73e:	f0 e0       	ldi	r31, 0x00	; 0
 740:	80 81       	ld	r24, Z
 742:	80 68       	ori	r24, 0x80	; 128
 744:	8c 93       	st	X, r24
	
}
 746:	cf 91       	pop	r28
 748:	df 91       	pop	r29
 74a:	08 95       	ret

0000074c <GIE_voidDisable>:
void GIE_voidDisable(void)
{
 74c:	df 93       	push	r29
 74e:	cf 93       	push	r28
 750:	cd b7       	in	r28, 0x3d	; 61
 752:	de b7       	in	r29, 0x3e	; 62
		CLR_BIT(SREG,SREG_I);
 754:	af e5       	ldi	r26, 0x5F	; 95
 756:	b0 e0       	ldi	r27, 0x00	; 0
 758:	ef e5       	ldi	r30, 0x5F	; 95
 75a:	f0 e0       	ldi	r31, 0x00	; 0
 75c:	80 81       	ld	r24, Z
 75e:	8f 77       	andi	r24, 0x7F	; 127
 760:	8c 93       	st	X, r24

	
}
 762:	cf 91       	pop	r28
 764:	df 91       	pop	r29
 766:	08 95       	ret

00000768 <LED_voidToggle>:
#include "STD_TYPES.h"
#include "BIT_MATH.h"
#include "LED_interface.h"

void LED_voidToggle(u8 copy_u8Port,u8 copy_u8Pin)
{
 768:	df 93       	push	r29
 76a:	cf 93       	push	r28
 76c:	00 d0       	rcall	.+0      	; 0x76e <LED_voidToggle+0x6>
 76e:	cd b7       	in	r28, 0x3d	; 61
 770:	de b7       	in	r29, 0x3e	; 62
 772:	89 83       	std	Y+1, r24	; 0x01
 774:	6a 83       	std	Y+2, r22	; 0x02

	static u8 Local_u8LedState = 0;
	TOG_BIT(Local_u8LedState,0);
 776:	90 91 64 00 	lds	r25, 0x0064
 77a:	81 e0       	ldi	r24, 0x01	; 1
 77c:	89 27       	eor	r24, r25
 77e:	80 93 64 00 	sts	0x0064, r24
	DIO_u8SetPinValue(copy_u8Port,copy_u8Pin,Local_u8LedState);
 782:	89 81       	ldd	r24, Y+1	; 0x01
 784:	68 2f       	mov	r22, r24
 786:	70 e0       	ldi	r23, 0x00	; 0
 788:	8a 81       	ldd	r24, Y+2	; 0x02
 78a:	48 2f       	mov	r20, r24
 78c:	50 e0       	ldi	r21, 0x00	; 0
 78e:	80 91 64 00 	lds	r24, 0x0064
 792:	28 2f       	mov	r18, r24
 794:	30 e0       	ldi	r19, 0x00	; 0
 796:	cb 01       	movw	r24, r22
 798:	ba 01       	movw	r22, r20
 79a:	a9 01       	movw	r20, r18
 79c:	0e 94 a3 01 	call	0x346	; 0x346 <DIO_u8SetPinValue>
}
 7a0:	0f 90       	pop	r0
 7a2:	0f 90       	pop	r0
 7a4:	cf 91       	pop	r28
 7a6:	df 91       	pop	r29
 7a8:	08 95       	ret

000007aa <PORT_voidInit>:
#include "PORT_register.h"



void PORT_voidInit(void)
{
 7aa:	df 93       	push	r29
 7ac:	cf 93       	push	r28
 7ae:	cd b7       	in	r28, 0x3d	; 61
 7b0:	de b7       	in	r29, 0x3e	; 62



	DDRA = PORTA_DIR;
 7b2:	ea e3       	ldi	r30, 0x3A	; 58
 7b4:	f0 e0       	ldi	r31, 0x00	; 0
 7b6:	8f ef       	ldi	r24, 0xFF	; 255
 7b8:	80 83       	st	Z, r24
	DDRB = PORTB_DIR;
 7ba:	e7 e3       	ldi	r30, 0x37	; 55
 7bc:	f0 e0       	ldi	r31, 0x00	; 0
 7be:	8f ef       	ldi	r24, 0xFF	; 255
 7c0:	80 83       	st	Z, r24
	DDRC = PORTC_DIR;
 7c2:	e4 e3       	ldi	r30, 0x34	; 52
 7c4:	f0 e0       	ldi	r31, 0x00	; 0
 7c6:	8f ef       	ldi	r24, 0xFF	; 255
 7c8:	80 83       	st	Z, r24
	DDRD = PORTD_DIR;
 7ca:	e1 e3       	ldi	r30, 0x31	; 49
 7cc:	f0 e0       	ldi	r31, 0x00	; 0
 7ce:	8f ef       	ldi	r24, 0xFF	; 255
 7d0:	80 83       	st	Z, r24

	PORTA = PORTA_INIT_VALUE;
 7d2:	eb e3       	ldi	r30, 0x3B	; 59
 7d4:	f0 e0       	ldi	r31, 0x00	; 0
 7d6:	10 82       	st	Z, r1
	PORTB = PORTB_INIT_VALUE;
 7d8:	e8 e3       	ldi	r30, 0x38	; 56
 7da:	f0 e0       	ldi	r31, 0x00	; 0
 7dc:	10 82       	st	Z, r1
	PORTC = PORTC_INIT_VALUE;
 7de:	e5 e3       	ldi	r30, 0x35	; 53
 7e0:	f0 e0       	ldi	r31, 0x00	; 0
 7e2:	86 e0       	ldi	r24, 0x06	; 6
 7e4:	80 83       	st	Z, r24
	PORTD = PORTD_INIT_VALUE;
 7e6:	e2 e3       	ldi	r30, 0x32	; 50
 7e8:	f0 e0       	ldi	r31, 0x00	; 0
 7ea:	10 82       	st	Z, r1



}
 7ec:	cf 91       	pop	r28
 7ee:	df 91       	pop	r29
 7f0:	08 95       	ret

000007f2 <RTOS_voidStart>:
#include "RTOS_register.h"

STask_t System_Tasks[TASKNUM][PRIORITY] = {{NULL}};


void RTOS_voidStart(){
 7f2:	df 93       	push	r29
 7f4:	cf 93       	push	r28
 7f6:	cd b7       	in	r28, 0x3d	; 61
 7f8:	de b7       	in	r29, 0x3e	; 62

	/*send ISR */
	TIMER0_voidSetCallBackFun(&void_schedular);
 7fa:	88 ed       	ldi	r24, 0xD8	; 216
 7fc:	94 e0       	ldi	r25, 0x04	; 4
 7fe:	0e 94 67 06 	call	0xcce	; 0xcce <TIMER0_voidSetCallBackFun>
	/*Initial Timer 0*/
	TIMER0_voidInit();
 802:	0e 94 24 06 	call	0xc48	; 0xc48 <TIMER0_voidInit>
	/*Enable GIE*/
	GIE_voidEnable();
 806:	0e 94 98 03 	call	0x730	; 0x730 <GIE_voidEnable>


}
 80a:	cf 91       	pop	r28
 80c:	df 91       	pop	r29
 80e:	08 95       	ret

00000810 <RTOS_voidNewTask>:


RTOS_ErrorStatus RTOS_voidNewTask(u16 copy_u16Periodicity , u8 copy_u8Priorty, void (*Pfunc)(void),u16 copy_u16FirstDelay){
 810:	df 93       	push	r29
 812:	cf 93       	push	r28
 814:	cd b7       	in	r28, 0x3d	; 61
 816:	de b7       	in	r29, 0x3e	; 62
 818:	28 97       	sbiw	r28, 0x08	; 8
 81a:	0f b6       	in	r0, 0x3f	; 63
 81c:	f8 94       	cli
 81e:	de bf       	out	0x3e, r29	; 62
 820:	0f be       	out	0x3f, r0	; 63
 822:	cd bf       	out	0x3d, r28	; 61
 824:	9a 83       	std	Y+2, r25	; 0x02
 826:	89 83       	std	Y+1, r24	; 0x01
 828:	6b 83       	std	Y+3, r22	; 0x03
 82a:	5d 83       	std	Y+5, r21	; 0x05
 82c:	4c 83       	std	Y+4, r20	; 0x04
 82e:	3f 83       	std	Y+7, r19	; 0x07
 830:	2e 83       	std	Y+6, r18	; 0x06

	/*check if priority is exist or not*/


	if(System_Tasks[copy_u8Priorty][0].PFunc==NULL)
 832:	8b 81       	ldd	r24, Y+3	; 0x03
 834:	88 2f       	mov	r24, r24
 836:	90 e0       	ldi	r25, 0x00	; 0
 838:	9c 01       	movw	r18, r24
 83a:	22 0f       	add	r18, r18
 83c:	33 1f       	adc	r19, r19
 83e:	c9 01       	movw	r24, r18
 840:	88 0f       	add	r24, r24
 842:	99 1f       	adc	r25, r25
 844:	88 0f       	add	r24, r24
 846:	99 1f       	adc	r25, r25
 848:	88 0f       	add	r24, r24
 84a:	99 1f       	adc	r25, r25
 84c:	82 1b       	sub	r24, r18
 84e:	93 0b       	sbc	r25, r19
 850:	fc 01       	movw	r30, r24
 852:	e6 59       	subi	r30, 0x96	; 150
 854:	ff 4f       	sbci	r31, 0xFF	; 255
 856:	80 81       	ld	r24, Z
 858:	91 81       	ldd	r25, Z+1	; 0x01
 85a:	00 97       	sbiw	r24, 0x00	; 0
 85c:	09 f0       	breq	.+2      	; 0x860 <__stack+0x1>
 85e:	43 c0       	rjmp	.+134    	; 0x8e6 <__stack+0x87>
	{
		System_Tasks[copy_u8Priorty][0].periodicity = copy_u16Periodicity;
 860:	8b 81       	ldd	r24, Y+3	; 0x03
 862:	88 2f       	mov	r24, r24
 864:	90 e0       	ldi	r25, 0x00	; 0
 866:	9c 01       	movw	r18, r24
 868:	22 0f       	add	r18, r18
 86a:	33 1f       	adc	r19, r19
 86c:	c9 01       	movw	r24, r18
 86e:	88 0f       	add	r24, r24
 870:	99 1f       	adc	r25, r25
 872:	88 0f       	add	r24, r24
 874:	99 1f       	adc	r25, r25
 876:	88 0f       	add	r24, r24
 878:	99 1f       	adc	r25, r25
 87a:	82 1b       	sub	r24, r18
 87c:	93 0b       	sbc	r25, r19
 87e:	fc 01       	movw	r30, r24
 880:	eb 59       	subi	r30, 0x9B	; 155
 882:	ff 4f       	sbci	r31, 0xFF	; 255
 884:	89 81       	ldd	r24, Y+1	; 0x01
 886:	9a 81       	ldd	r25, Y+2	; 0x02
 888:	91 83       	std	Z+1, r25	; 0x01
 88a:	80 83       	st	Z, r24
		System_Tasks[copy_u8Priorty][0].PFunc = Pfunc;
 88c:	8b 81       	ldd	r24, Y+3	; 0x03
 88e:	88 2f       	mov	r24, r24
 890:	90 e0       	ldi	r25, 0x00	; 0
 892:	9c 01       	movw	r18, r24
 894:	22 0f       	add	r18, r18
 896:	33 1f       	adc	r19, r19
 898:	c9 01       	movw	r24, r18
 89a:	88 0f       	add	r24, r24
 89c:	99 1f       	adc	r25, r25
 89e:	88 0f       	add	r24, r24
 8a0:	99 1f       	adc	r25, r25
 8a2:	88 0f       	add	r24, r24
 8a4:	99 1f       	adc	r25, r25
 8a6:	82 1b       	sub	r24, r18
 8a8:	93 0b       	sbc	r25, r19
 8aa:	fc 01       	movw	r30, r24
 8ac:	e6 59       	subi	r30, 0x96	; 150
 8ae:	ff 4f       	sbci	r31, 0xFF	; 255
 8b0:	8c 81       	ldd	r24, Y+4	; 0x04
 8b2:	9d 81       	ldd	r25, Y+5	; 0x05
 8b4:	91 83       	std	Z+1, r25	; 0x01
 8b6:	80 83       	st	Z, r24
		System_Tasks[copy_u8Priorty][0].state = RESUME_TASK;
 8b8:	8b 81       	ldd	r24, Y+3	; 0x03
 8ba:	88 2f       	mov	r24, r24
 8bc:	90 e0       	ldi	r25, 0x00	; 0
 8be:	9c 01       	movw	r18, r24
 8c0:	22 0f       	add	r18, r18
 8c2:	33 1f       	adc	r19, r19
 8c4:	c9 01       	movw	r24, r18
 8c6:	88 0f       	add	r24, r24
 8c8:	99 1f       	adc	r25, r25
 8ca:	88 0f       	add	r24, r24
 8cc:	99 1f       	adc	r25, r25
 8ce:	88 0f       	add	r24, r24
 8d0:	99 1f       	adc	r25, r25
 8d2:	82 1b       	sub	r24, r18
 8d4:	93 0b       	sbc	r25, r19
 8d6:	fc 01       	movw	r30, r24
 8d8:	e7 59       	subi	r30, 0x97	; 151
 8da:	ff 4f       	sbci	r31, 0xFF	; 255
 8dc:	81 e0       	ldi	r24, 0x01	; 1
 8de:	80 83       	st	Z, r24
		return RTOS_NoError;
 8e0:	81 e0       	ldi	r24, 0x01	; 1
 8e2:	88 87       	std	Y+8, r24	; 0x08
 8e4:	5b c0       	rjmp	.+182    	; 0x99c <__stack+0x13d>
	}

	else if(System_Tasks[copy_u8Priorty][1].PFunc==NULL)
 8e6:	8b 81       	ldd	r24, Y+3	; 0x03
 8e8:	88 2f       	mov	r24, r24
 8ea:	90 e0       	ldi	r25, 0x00	; 0
 8ec:	9c 01       	movw	r18, r24
 8ee:	22 0f       	add	r18, r18
 8f0:	33 1f       	adc	r19, r19
 8f2:	c9 01       	movw	r24, r18
 8f4:	88 0f       	add	r24, r24
 8f6:	99 1f       	adc	r25, r25
 8f8:	88 0f       	add	r24, r24
 8fa:	99 1f       	adc	r25, r25
 8fc:	88 0f       	add	r24, r24
 8fe:	99 1f       	adc	r25, r25
 900:	82 1b       	sub	r24, r18
 902:	93 0b       	sbc	r25, r19
 904:	fc 01       	movw	r30, r24
 906:	ef 58       	subi	r30, 0x8F	; 143
 908:	ff 4f       	sbci	r31, 0xFF	; 255
 90a:	80 81       	ld	r24, Z
 90c:	91 81       	ldd	r25, Z+1	; 0x01
 90e:	00 97       	sbiw	r24, 0x00	; 0
 910:	09 f0       	breq	.+2      	; 0x914 <__stack+0xb5>
 912:	43 c0       	rjmp	.+134    	; 0x99a <__stack+0x13b>
	{
		System_Tasks[copy_u8Priorty][1].periodicity = copy_u16Periodicity;
 914:	8b 81       	ldd	r24, Y+3	; 0x03
 916:	88 2f       	mov	r24, r24
 918:	90 e0       	ldi	r25, 0x00	; 0
 91a:	9c 01       	movw	r18, r24
 91c:	22 0f       	add	r18, r18
 91e:	33 1f       	adc	r19, r19
 920:	c9 01       	movw	r24, r18
 922:	88 0f       	add	r24, r24
 924:	99 1f       	adc	r25, r25
 926:	88 0f       	add	r24, r24
 928:	99 1f       	adc	r25, r25
 92a:	88 0f       	add	r24, r24
 92c:	99 1f       	adc	r25, r25
 92e:	82 1b       	sub	r24, r18
 930:	93 0b       	sbc	r25, r19
 932:	fc 01       	movw	r30, r24
 934:	e4 59       	subi	r30, 0x94	; 148
 936:	ff 4f       	sbci	r31, 0xFF	; 255
 938:	89 81       	ldd	r24, Y+1	; 0x01
 93a:	9a 81       	ldd	r25, Y+2	; 0x02
 93c:	91 83       	std	Z+1, r25	; 0x01
 93e:	80 83       	st	Z, r24
		System_Tasks[copy_u8Priorty][1].PFunc = Pfunc;
 940:	8b 81       	ldd	r24, Y+3	; 0x03
 942:	88 2f       	mov	r24, r24
 944:	90 e0       	ldi	r25, 0x00	; 0
 946:	9c 01       	movw	r18, r24
 948:	22 0f       	add	r18, r18
 94a:	33 1f       	adc	r19, r19
 94c:	c9 01       	movw	r24, r18
 94e:	88 0f       	add	r24, r24
 950:	99 1f       	adc	r25, r25
 952:	88 0f       	add	r24, r24
 954:	99 1f       	adc	r25, r25
 956:	88 0f       	add	r24, r24
 958:	99 1f       	adc	r25, r25
 95a:	82 1b       	sub	r24, r18
 95c:	93 0b       	sbc	r25, r19
 95e:	fc 01       	movw	r30, r24
 960:	ef 58       	subi	r30, 0x8F	; 143
 962:	ff 4f       	sbci	r31, 0xFF	; 255
 964:	8c 81       	ldd	r24, Y+4	; 0x04
 966:	9d 81       	ldd	r25, Y+5	; 0x05
 968:	91 83       	std	Z+1, r25	; 0x01
 96a:	80 83       	st	Z, r24
		System_Tasks[copy_u8Priorty][1].state = RESUME_TASK;
 96c:	8b 81       	ldd	r24, Y+3	; 0x03
 96e:	88 2f       	mov	r24, r24
 970:	90 e0       	ldi	r25, 0x00	; 0
 972:	9c 01       	movw	r18, r24
 974:	22 0f       	add	r18, r18
 976:	33 1f       	adc	r19, r19
 978:	c9 01       	movw	r24, r18
 97a:	88 0f       	add	r24, r24
 97c:	99 1f       	adc	r25, r25
 97e:	88 0f       	add	r24, r24
 980:	99 1f       	adc	r25, r25
 982:	88 0f       	add	r24, r24
 984:	99 1f       	adc	r25, r25
 986:	82 1b       	sub	r24, r18
 988:	93 0b       	sbc	r25, r19
 98a:	fc 01       	movw	r30, r24
 98c:	e0 59       	subi	r30, 0x90	; 144
 98e:	ff 4f       	sbci	r31, 0xFF	; 255
 990:	81 e0       	ldi	r24, 0x01	; 1
 992:	80 83       	st	Z, r24
		return RTOS_NoError;
 994:	81 e0       	ldi	r24, 0x01	; 1
 996:	88 87       	std	Y+8, r24	; 0x08
 998:	01 c0       	rjmp	.+2      	; 0x99c <__stack+0x13d>

	}
	else
	{
		return RTOS_ErrorPririotyExist;
 99a:	18 86       	std	Y+8, r1	; 0x08
 99c:	88 85       	ldd	r24, Y+8	; 0x08
	}


}
 99e:	28 96       	adiw	r28, 0x08	; 8
 9a0:	0f b6       	in	r0, 0x3f	; 63
 9a2:	f8 94       	cli
 9a4:	de bf       	out	0x3e, r29	; 62
 9a6:	0f be       	out	0x3f, r0	; 63
 9a8:	cd bf       	out	0x3d, r28	; 61
 9aa:	cf 91       	pop	r28
 9ac:	df 91       	pop	r29
 9ae:	08 95       	ret

000009b0 <void_schedular>:



/*=======================================================
 * =====================================================*/
static void void_schedular(void){
 9b0:	0f 93       	push	r16
 9b2:	1f 93       	push	r17
 9b4:	df 93       	push	r29
 9b6:	cf 93       	push	r28
 9b8:	00 d0       	rcall	.+0      	; 0x9ba <void_schedular+0xa>
 9ba:	cd b7       	in	r28, 0x3d	; 61
 9bc:	de b7       	in	r29, 0x3e	; 62


//	u8 Local_u8Ittirate = 0;
	u8 Local_u8IttirateT = 0;
 9be:	1a 82       	std	Y+2, r1	; 0x02
	u8 Local_u8IttirateP = 0;
 9c0:	19 82       	std	Y+1, r1	; 0x01
	/*check which task achieve the desired tick number*/

	for(Local_u8IttirateT =0 ; Local_u8IttirateT <TASKNUM ; Local_u8IttirateT++)
 9c2:	1a 82       	std	Y+2, r1	; 0x02
 9c4:	36 c1       	rjmp	.+620    	; 0xc32 <void_schedular+0x282>
	{
		for(Local_u8IttirateP =0 ; Local_u8IttirateP <PRIORITY ; Local_u8IttirateP++)
 9c6:	19 82       	std	Y+1, r1	; 0x01
 9c8:	2d c1       	rjmp	.+602    	; 0xc24 <void_schedular+0x274>
		{
			if(System_Tasks[Local_u8IttirateT][Local_u8IttirateP].state==RESUME_TASK)
 9ca:	8a 81       	ldd	r24, Y+2	; 0x02
 9cc:	68 2f       	mov	r22, r24
 9ce:	70 e0       	ldi	r23, 0x00	; 0
 9d0:	89 81       	ldd	r24, Y+1	; 0x01
 9d2:	28 2f       	mov	r18, r24
 9d4:	30 e0       	ldi	r19, 0x00	; 0
 9d6:	c9 01       	movw	r24, r18
 9d8:	ac 01       	movw	r20, r24
 9da:	44 0f       	add	r20, r20
 9dc:	55 1f       	adc	r21, r21
 9de:	44 0f       	add	r20, r20
 9e0:	55 1f       	adc	r21, r21
 9e2:	44 0f       	add	r20, r20
 9e4:	55 1f       	adc	r21, r21
 9e6:	42 1b       	sub	r20, r18
 9e8:	53 0b       	sbc	r21, r19
 9ea:	cb 01       	movw	r24, r22
 9ec:	9c 01       	movw	r18, r24
 9ee:	22 0f       	add	r18, r18
 9f0:	33 1f       	adc	r19, r19
 9f2:	c9 01       	movw	r24, r18
 9f4:	88 0f       	add	r24, r24
 9f6:	99 1f       	adc	r25, r25
 9f8:	88 0f       	add	r24, r24
 9fa:	99 1f       	adc	r25, r25
 9fc:	88 0f       	add	r24, r24
 9fe:	99 1f       	adc	r25, r25
 a00:	82 1b       	sub	r24, r18
 a02:	93 0b       	sbc	r25, r19
 a04:	84 0f       	add	r24, r20
 a06:	95 1f       	adc	r25, r21
 a08:	fc 01       	movw	r30, r24
 a0a:	e7 59       	subi	r30, 0x97	; 151
 a0c:	ff 4f       	sbci	r31, 0xFF	; 255
 a0e:	80 81       	ld	r24, Z
 a10:	81 30       	cpi	r24, 0x01	; 1
 a12:	09 f0       	breq	.+2      	; 0xa16 <void_schedular+0x66>
 a14:	04 c1       	rjmp	.+520    	; 0xc1e <void_schedular+0x26e>
			{
				if(System_Tasks[Local_u8IttirateT][Local_u8IttirateP].FirstDelay==0)
 a16:	8a 81       	ldd	r24, Y+2	; 0x02
 a18:	68 2f       	mov	r22, r24
 a1a:	70 e0       	ldi	r23, 0x00	; 0
 a1c:	89 81       	ldd	r24, Y+1	; 0x01
 a1e:	28 2f       	mov	r18, r24
 a20:	30 e0       	ldi	r19, 0x00	; 0
 a22:	c9 01       	movw	r24, r18
 a24:	ac 01       	movw	r20, r24
 a26:	44 0f       	add	r20, r20
 a28:	55 1f       	adc	r21, r21
 a2a:	44 0f       	add	r20, r20
 a2c:	55 1f       	adc	r21, r21
 a2e:	44 0f       	add	r20, r20
 a30:	55 1f       	adc	r21, r21
 a32:	42 1b       	sub	r20, r18
 a34:	53 0b       	sbc	r21, r19
 a36:	cb 01       	movw	r24, r22
 a38:	9c 01       	movw	r18, r24
 a3a:	22 0f       	add	r18, r18
 a3c:	33 1f       	adc	r19, r19
 a3e:	c9 01       	movw	r24, r18
 a40:	88 0f       	add	r24, r24
 a42:	99 1f       	adc	r25, r25
 a44:	88 0f       	add	r24, r24
 a46:	99 1f       	adc	r25, r25
 a48:	88 0f       	add	r24, r24
 a4a:	99 1f       	adc	r25, r25
 a4c:	82 1b       	sub	r24, r18
 a4e:	93 0b       	sbc	r25, r19
 a50:	84 0f       	add	r24, r20
 a52:	95 1f       	adc	r25, r21
 a54:	fc 01       	movw	r30, r24
 a56:	e9 59       	subi	r30, 0x99	; 153
 a58:	ff 4f       	sbci	r31, 0xFF	; 255
 a5a:	80 81       	ld	r24, Z
 a5c:	91 81       	ldd	r25, Z+1	; 0x01
 a5e:	00 97       	sbiw	r24, 0x00	; 0
 a60:	09 f0       	breq	.+2      	; 0xa64 <void_schedular+0xb4>
 a62:	99 c0       	rjmp	.+306    	; 0xb96 <void_schedular+0x1e6>
				{
					if(System_Tasks[Local_u8IttirateT][Local_u8IttirateP].PFunc!=NULL)
 a64:	8a 81       	ldd	r24, Y+2	; 0x02
 a66:	68 2f       	mov	r22, r24
 a68:	70 e0       	ldi	r23, 0x00	; 0
 a6a:	89 81       	ldd	r24, Y+1	; 0x01
 a6c:	28 2f       	mov	r18, r24
 a6e:	30 e0       	ldi	r19, 0x00	; 0
 a70:	c9 01       	movw	r24, r18
 a72:	ac 01       	movw	r20, r24
 a74:	44 0f       	add	r20, r20
 a76:	55 1f       	adc	r21, r21
 a78:	44 0f       	add	r20, r20
 a7a:	55 1f       	adc	r21, r21
 a7c:	44 0f       	add	r20, r20
 a7e:	55 1f       	adc	r21, r21
 a80:	42 1b       	sub	r20, r18
 a82:	53 0b       	sbc	r21, r19
 a84:	cb 01       	movw	r24, r22
 a86:	9c 01       	movw	r18, r24
 a88:	22 0f       	add	r18, r18
 a8a:	33 1f       	adc	r19, r19
 a8c:	c9 01       	movw	r24, r18
 a8e:	88 0f       	add	r24, r24
 a90:	99 1f       	adc	r25, r25
 a92:	88 0f       	add	r24, r24
 a94:	99 1f       	adc	r25, r25
 a96:	88 0f       	add	r24, r24
 a98:	99 1f       	adc	r25, r25
 a9a:	82 1b       	sub	r24, r18
 a9c:	93 0b       	sbc	r25, r19
 a9e:	84 0f       	add	r24, r20
 aa0:	95 1f       	adc	r25, r21
 aa2:	fc 01       	movw	r30, r24
 aa4:	e6 59       	subi	r30, 0x96	; 150
 aa6:	ff 4f       	sbci	r31, 0xFF	; 255
 aa8:	80 81       	ld	r24, Z
 aaa:	91 81       	ldd	r25, Z+1	; 0x01
 aac:	00 97       	sbiw	r24, 0x00	; 0
 aae:	09 f4       	brne	.+2      	; 0xab2 <void_schedular+0x102>
 ab0:	b6 c0       	rjmp	.+364    	; 0xc1e <void_schedular+0x26e>
					{
						System_Tasks[Local_u8IttirateT][Local_u8IttirateP].FirstDelay = System_Tasks[Local_u8IttirateT][Local_u8IttirateP].periodicity-1;
 ab2:	8a 81       	ldd	r24, Y+2	; 0x02
 ab4:	08 2f       	mov	r16, r24
 ab6:	10 e0       	ldi	r17, 0x00	; 0
 ab8:	89 81       	ldd	r24, Y+1	; 0x01
 aba:	a8 2f       	mov	r26, r24
 abc:	b0 e0       	ldi	r27, 0x00	; 0
 abe:	8a 81       	ldd	r24, Y+2	; 0x02
 ac0:	68 2f       	mov	r22, r24
 ac2:	70 e0       	ldi	r23, 0x00	; 0
 ac4:	89 81       	ldd	r24, Y+1	; 0x01
 ac6:	28 2f       	mov	r18, r24
 ac8:	30 e0       	ldi	r19, 0x00	; 0
 aca:	c9 01       	movw	r24, r18
 acc:	ac 01       	movw	r20, r24
 ace:	44 0f       	add	r20, r20
 ad0:	55 1f       	adc	r21, r21
 ad2:	44 0f       	add	r20, r20
 ad4:	55 1f       	adc	r21, r21
 ad6:	44 0f       	add	r20, r20
 ad8:	55 1f       	adc	r21, r21
 ada:	42 1b       	sub	r20, r18
 adc:	53 0b       	sbc	r21, r19
 ade:	cb 01       	movw	r24, r22
 ae0:	9c 01       	movw	r18, r24
 ae2:	22 0f       	add	r18, r18
 ae4:	33 1f       	adc	r19, r19
 ae6:	c9 01       	movw	r24, r18
 ae8:	88 0f       	add	r24, r24
 aea:	99 1f       	adc	r25, r25
 aec:	88 0f       	add	r24, r24
 aee:	99 1f       	adc	r25, r25
 af0:	88 0f       	add	r24, r24
 af2:	99 1f       	adc	r25, r25
 af4:	82 1b       	sub	r24, r18
 af6:	93 0b       	sbc	r25, r19
 af8:	84 0f       	add	r24, r20
 afa:	95 1f       	adc	r25, r21
 afc:	fc 01       	movw	r30, r24
 afe:	eb 59       	subi	r30, 0x9B	; 155
 b00:	ff 4f       	sbci	r31, 0xFF	; 255
 b02:	80 81       	ld	r24, Z
 b04:	91 81       	ldd	r25, Z+1	; 0x01
 b06:	bc 01       	movw	r22, r24
 b08:	61 50       	subi	r22, 0x01	; 1
 b0a:	70 40       	sbci	r23, 0x00	; 0
 b0c:	cd 01       	movw	r24, r26
 b0e:	ac 01       	movw	r20, r24
 b10:	44 0f       	add	r20, r20
 b12:	55 1f       	adc	r21, r21
 b14:	44 0f       	add	r20, r20
 b16:	55 1f       	adc	r21, r21
 b18:	44 0f       	add	r20, r20
 b1a:	55 1f       	adc	r21, r21
 b1c:	4a 1b       	sub	r20, r26
 b1e:	5b 0b       	sbc	r21, r27
 b20:	c8 01       	movw	r24, r16
 b22:	9c 01       	movw	r18, r24
 b24:	22 0f       	add	r18, r18
 b26:	33 1f       	adc	r19, r19
 b28:	c9 01       	movw	r24, r18
 b2a:	88 0f       	add	r24, r24
 b2c:	99 1f       	adc	r25, r25
 b2e:	88 0f       	add	r24, r24
 b30:	99 1f       	adc	r25, r25
 b32:	88 0f       	add	r24, r24
 b34:	99 1f       	adc	r25, r25
 b36:	82 1b       	sub	r24, r18
 b38:	93 0b       	sbc	r25, r19
 b3a:	84 0f       	add	r24, r20
 b3c:	95 1f       	adc	r25, r21
 b3e:	fc 01       	movw	r30, r24
 b40:	e9 59       	subi	r30, 0x99	; 153
 b42:	ff 4f       	sbci	r31, 0xFF	; 255
 b44:	71 83       	std	Z+1, r23	; 0x01
 b46:	60 83       	st	Z, r22

						System_Tasks[Local_u8IttirateT][Local_u8IttirateP].PFunc();
 b48:	8a 81       	ldd	r24, Y+2	; 0x02
 b4a:	68 2f       	mov	r22, r24
 b4c:	70 e0       	ldi	r23, 0x00	; 0
 b4e:	89 81       	ldd	r24, Y+1	; 0x01
 b50:	28 2f       	mov	r18, r24
 b52:	30 e0       	ldi	r19, 0x00	; 0
 b54:	c9 01       	movw	r24, r18
 b56:	ac 01       	movw	r20, r24
 b58:	44 0f       	add	r20, r20
 b5a:	55 1f       	adc	r21, r21
 b5c:	44 0f       	add	r20, r20
 b5e:	55 1f       	adc	r21, r21
 b60:	44 0f       	add	r20, r20
 b62:	55 1f       	adc	r21, r21
 b64:	42 1b       	sub	r20, r18
 b66:	53 0b       	sbc	r21, r19
 b68:	cb 01       	movw	r24, r22
 b6a:	9c 01       	movw	r18, r24
 b6c:	22 0f       	add	r18, r18
 b6e:	33 1f       	adc	r19, r19
 b70:	c9 01       	movw	r24, r18
 b72:	88 0f       	add	r24, r24
 b74:	99 1f       	adc	r25, r25
 b76:	88 0f       	add	r24, r24
 b78:	99 1f       	adc	r25, r25
 b7a:	88 0f       	add	r24, r24
 b7c:	99 1f       	adc	r25, r25
 b7e:	82 1b       	sub	r24, r18
 b80:	93 0b       	sbc	r25, r19
 b82:	84 0f       	add	r24, r20
 b84:	95 1f       	adc	r25, r21
 b86:	fc 01       	movw	r30, r24
 b88:	e6 59       	subi	r30, 0x96	; 150
 b8a:	ff 4f       	sbci	r31, 0xFF	; 255
 b8c:	01 90       	ld	r0, Z+
 b8e:	f0 81       	ld	r31, Z
 b90:	e0 2d       	mov	r30, r0
 b92:	09 95       	icall
 b94:	44 c0       	rjmp	.+136    	; 0xc1e <void_schedular+0x26e>
					}

				}
				else
				{
					System_Tasks[Local_u8IttirateT][Local_u8IttirateP].FirstDelay--;
 b96:	8a 81       	ldd	r24, Y+2	; 0x02
 b98:	08 2f       	mov	r16, r24
 b9a:	10 e0       	ldi	r17, 0x00	; 0
 b9c:	89 81       	ldd	r24, Y+1	; 0x01
 b9e:	68 2f       	mov	r22, r24
 ba0:	70 e0       	ldi	r23, 0x00	; 0
 ba2:	cb 01       	movw	r24, r22
 ba4:	ac 01       	movw	r20, r24
 ba6:	44 0f       	add	r20, r20
 ba8:	55 1f       	adc	r21, r21
 baa:	44 0f       	add	r20, r20
 bac:	55 1f       	adc	r21, r21
 bae:	44 0f       	add	r20, r20
 bb0:	55 1f       	adc	r21, r21
 bb2:	46 1b       	sub	r20, r22
 bb4:	57 0b       	sbc	r21, r23
 bb6:	c8 01       	movw	r24, r16
 bb8:	9c 01       	movw	r18, r24
 bba:	22 0f       	add	r18, r18
 bbc:	33 1f       	adc	r19, r19
 bbe:	c9 01       	movw	r24, r18
 bc0:	88 0f       	add	r24, r24
 bc2:	99 1f       	adc	r25, r25
 bc4:	88 0f       	add	r24, r24
 bc6:	99 1f       	adc	r25, r25
 bc8:	88 0f       	add	r24, r24
 bca:	99 1f       	adc	r25, r25
 bcc:	82 1b       	sub	r24, r18
 bce:	93 0b       	sbc	r25, r19
 bd0:	84 0f       	add	r24, r20
 bd2:	95 1f       	adc	r25, r21
 bd4:	fc 01       	movw	r30, r24
 bd6:	e9 59       	subi	r30, 0x99	; 153
 bd8:	ff 4f       	sbci	r31, 0xFF	; 255
 bda:	80 81       	ld	r24, Z
 bdc:	91 81       	ldd	r25, Z+1	; 0x01
 bde:	dc 01       	movw	r26, r24
 be0:	11 97       	sbiw	r26, 0x01	; 1
 be2:	cb 01       	movw	r24, r22
 be4:	ac 01       	movw	r20, r24
 be6:	44 0f       	add	r20, r20
 be8:	55 1f       	adc	r21, r21
 bea:	44 0f       	add	r20, r20
 bec:	55 1f       	adc	r21, r21
 bee:	44 0f       	add	r20, r20
 bf0:	55 1f       	adc	r21, r21
 bf2:	46 1b       	sub	r20, r22
 bf4:	57 0b       	sbc	r21, r23
 bf6:	c8 01       	movw	r24, r16
 bf8:	9c 01       	movw	r18, r24
 bfa:	22 0f       	add	r18, r18
 bfc:	33 1f       	adc	r19, r19
 bfe:	c9 01       	movw	r24, r18
 c00:	88 0f       	add	r24, r24
 c02:	99 1f       	adc	r25, r25
 c04:	88 0f       	add	r24, r24
 c06:	99 1f       	adc	r25, r25
 c08:	88 0f       	add	r24, r24
 c0a:	99 1f       	adc	r25, r25
 c0c:	82 1b       	sub	r24, r18
 c0e:	93 0b       	sbc	r25, r19
 c10:	84 0f       	add	r24, r20
 c12:	95 1f       	adc	r25, r21
 c14:	fc 01       	movw	r30, r24
 c16:	e9 59       	subi	r30, 0x99	; 153
 c18:	ff 4f       	sbci	r31, 0xFF	; 255
 c1a:	b1 83       	std	Z+1, r27	; 0x01
 c1c:	a0 83       	st	Z, r26
	u8 Local_u8IttirateP = 0;
	/*check which task achieve the desired tick number*/

	for(Local_u8IttirateT =0 ; Local_u8IttirateT <TASKNUM ; Local_u8IttirateT++)
	{
		for(Local_u8IttirateP =0 ; Local_u8IttirateP <PRIORITY ; Local_u8IttirateP++)
 c1e:	89 81       	ldd	r24, Y+1	; 0x01
 c20:	8f 5f       	subi	r24, 0xFF	; 255
 c22:	89 83       	std	Y+1, r24	; 0x01
 c24:	89 81       	ldd	r24, Y+1	; 0x01
 c26:	82 30       	cpi	r24, 0x02	; 2
 c28:	08 f4       	brcc	.+2      	; 0xc2c <void_schedular+0x27c>
 c2a:	cf ce       	rjmp	.-610    	; 0x9ca <void_schedular+0x1a>
//	u8 Local_u8Ittirate = 0;
	u8 Local_u8IttirateT = 0;
	u8 Local_u8IttirateP = 0;
	/*check which task achieve the desired tick number*/

	for(Local_u8IttirateT =0 ; Local_u8IttirateT <TASKNUM ; Local_u8IttirateT++)
 c2c:	8a 81       	ldd	r24, Y+2	; 0x02
 c2e:	8f 5f       	subi	r24, 0xFF	; 255
 c30:	8a 83       	std	Y+2, r24	; 0x02
 c32:	8a 81       	ldd	r24, Y+2	; 0x02
 c34:	83 30       	cpi	r24, 0x03	; 3
 c36:	08 f4       	brcc	.+2      	; 0xc3a <void_schedular+0x28a>
 c38:	c6 ce       	rjmp	.-628    	; 0x9c6 <void_schedular+0x16>
//		{
//			/*Do nothing*/
//		}
//	}

}
 c3a:	0f 90       	pop	r0
 c3c:	0f 90       	pop	r0
 c3e:	cf 91       	pop	r28
 c40:	df 91       	pop	r29
 c42:	1f 91       	pop	r17
 c44:	0f 91       	pop	r16
 c46:	08 95       	ret

00000c48 <TIMER0_voidInit>:

void (*GlobalPFunc)(void) = NULL;


/*Compare Match Value Handling by Interrupt*/
void TIMER0_voidInit(){
 c48:	df 93       	push	r29
 c4a:	cf 93       	push	r28
 c4c:	cd b7       	in	r28, 0x3d	; 61
 c4e:	de b7       	in	r29, 0x3e	; 62


	/*select mode to Compare Match Value*/
	CLR_BIT(TCCR0,TCCR0_WGM00);
 c50:	a3 e5       	ldi	r26, 0x53	; 83
 c52:	b0 e0       	ldi	r27, 0x00	; 0
 c54:	e3 e5       	ldi	r30, 0x53	; 83
 c56:	f0 e0       	ldi	r31, 0x00	; 0
 c58:	80 81       	ld	r24, Z
 c5a:	8f 7b       	andi	r24, 0xBF	; 191
 c5c:	8c 93       	st	X, r24
	SET_BIT(TCCR0,TCCR0_WGM01);
 c5e:	a3 e5       	ldi	r26, 0x53	; 83
 c60:	b0 e0       	ldi	r27, 0x00	; 0
 c62:	e3 e5       	ldi	r30, 0x53	; 83
 c64:	f0 e0       	ldi	r31, 0x00	; 0
 c66:	80 81       	ld	r24, Z
 c68:	88 60       	ori	r24, 0x08	; 8
 c6a:	8c 93       	st	X, r24
	/*Select Pre-Scaler dev by 64*/
	//	Local_u8PrescalerMask |= PRE_SCALER_64;
	//	TCCR0|=Local_u8PrescalerMask;
	/*What happen on OCR0 --> Toggle*/
	CLR_BIT(TCCR0,TCCR0_COM00);
 c6c:	a3 e5       	ldi	r26, 0x53	; 83
 c6e:	b0 e0       	ldi	r27, 0x00	; 0
 c70:	e3 e5       	ldi	r30, 0x53	; 83
 c72:	f0 e0       	ldi	r31, 0x00	; 0
 c74:	80 81       	ld	r24, Z
 c76:	8f 7e       	andi	r24, 0xEF	; 239
 c78:	8c 93       	st	X, r24
	CLR_BIT(TCCR0,TCCR0_COM01);
 c7a:	a3 e5       	ldi	r26, 0x53	; 83
 c7c:	b0 e0       	ldi	r27, 0x00	; 0
 c7e:	e3 e5       	ldi	r30, 0x53	; 83
 c80:	f0 e0       	ldi	r31, 0x00	; 0
 c82:	80 81       	ld	r24, Z
 c84:	8f 7d       	andi	r24, 0xDF	; 223
 c86:	8c 93       	st	X, r24
	/*Set the Compare Match Value*/
	OCR0 =Compare_Match_Value;
 c88:	ec e5       	ldi	r30, 0x5C	; 92
 c8a:	f0 e0       	ldi	r31, 0x00	; 0
 c8c:	8d e7       	ldi	r24, 0x7D	; 125
 c8e:	80 83       	st	Z, r24
	/*Enable Compare Match value Interrupt*/
	SET_BIT(TIMSK,TIMSK_OCIE0);
 c90:	a9 e5       	ldi	r26, 0x59	; 89
 c92:	b0 e0       	ldi	r27, 0x00	; 0
 c94:	e9 e5       	ldi	r30, 0x59	; 89
 c96:	f0 e0       	ldi	r31, 0x00	; 0
 c98:	80 81       	ld	r24, Z
 c9a:	82 60       	ori	r24, 0x02	; 2
 c9c:	8c 93       	st	X, r24
	//	u8 Local_u8PrescalerMask = 0;
	SET_BIT(TCCR0,TCCR0_CS00);
 c9e:	a3 e5       	ldi	r26, 0x53	; 83
 ca0:	b0 e0       	ldi	r27, 0x00	; 0
 ca2:	e3 e5       	ldi	r30, 0x53	; 83
 ca4:	f0 e0       	ldi	r31, 0x00	; 0
 ca6:	80 81       	ld	r24, Z
 ca8:	81 60       	ori	r24, 0x01	; 1
 caa:	8c 93       	st	X, r24
	SET_BIT(TCCR0,TCCR0_CS01);
 cac:	a3 e5       	ldi	r26, 0x53	; 83
 cae:	b0 e0       	ldi	r27, 0x00	; 0
 cb0:	e3 e5       	ldi	r30, 0x53	; 83
 cb2:	f0 e0       	ldi	r31, 0x00	; 0
 cb4:	80 81       	ld	r24, Z
 cb6:	82 60       	ori	r24, 0x02	; 2
 cb8:	8c 93       	st	X, r24
	CLR_BIT(TCCR0,TCCR0_CS02);
 cba:	a3 e5       	ldi	r26, 0x53	; 83
 cbc:	b0 e0       	ldi	r27, 0x00	; 0
 cbe:	e3 e5       	ldi	r30, 0x53	; 83
 cc0:	f0 e0       	ldi	r31, 0x00	; 0
 cc2:	80 81       	ld	r24, Z
 cc4:	8b 7f       	andi	r24, 0xFB	; 251
 cc6:	8c 93       	st	X, r24


}
 cc8:	cf 91       	pop	r28
 cca:	df 91       	pop	r29
 ccc:	08 95       	ret

00000cce <TIMER0_voidSetCallBackFun>:

/**/
void TIMER0_voidSetCallBackFun(void(*pFun)(void)){
 cce:	df 93       	push	r29
 cd0:	cf 93       	push	r28
 cd2:	00 d0       	rcall	.+0      	; 0xcd4 <TIMER0_voidSetCallBackFun+0x6>
 cd4:	cd b7       	in	r28, 0x3d	; 61
 cd6:	de b7       	in	r29, 0x3e	; 62
 cd8:	9a 83       	std	Y+2, r25	; 0x02
 cda:	89 83       	std	Y+1, r24	; 0x01


	GlobalPFunc = pFun;
 cdc:	89 81       	ldd	r24, Y+1	; 0x01
 cde:	9a 81       	ldd	r25, Y+2	; 0x02
 ce0:	90 93 90 00 	sts	0x0090, r25
 ce4:	80 93 8f 00 	sts	0x008F, r24

}
 ce8:	0f 90       	pop	r0
 cea:	0f 90       	pop	r0
 cec:	cf 91       	pop	r28
 cee:	df 91       	pop	r29
 cf0:	08 95       	ret

00000cf2 <__vector_10>:



void __vector_10(void) __attribute__((signal)); /*attribute is a message from complier to the optimizer of linker to tell it that  its an interrupt signal*/
void __vector_10(void)
{
 cf2:	1f 92       	push	r1
 cf4:	0f 92       	push	r0
 cf6:	0f b6       	in	r0, 0x3f	; 63
 cf8:	0f 92       	push	r0
 cfa:	11 24       	eor	r1, r1
 cfc:	2f 93       	push	r18
 cfe:	3f 93       	push	r19
 d00:	4f 93       	push	r20
 d02:	5f 93       	push	r21
 d04:	6f 93       	push	r22
 d06:	7f 93       	push	r23
 d08:	8f 93       	push	r24
 d0a:	9f 93       	push	r25
 d0c:	af 93       	push	r26
 d0e:	bf 93       	push	r27
 d10:	ef 93       	push	r30
 d12:	ff 93       	push	r31
 d14:	df 93       	push	r29
 d16:	cf 93       	push	r28
 d18:	cd b7       	in	r28, 0x3d	; 61
 d1a:	de b7       	in	r29, 0x3e	; 62
	GlobalPFunc();
 d1c:	e0 91 8f 00 	lds	r30, 0x008F
 d20:	f0 91 90 00 	lds	r31, 0x0090
 d24:	09 95       	icall
}
 d26:	cf 91       	pop	r28
 d28:	df 91       	pop	r29
 d2a:	ff 91       	pop	r31
 d2c:	ef 91       	pop	r30
 d2e:	bf 91       	pop	r27
 d30:	af 91       	pop	r26
 d32:	9f 91       	pop	r25
 d34:	8f 91       	pop	r24
 d36:	7f 91       	pop	r23
 d38:	6f 91       	pop	r22
 d3a:	5f 91       	pop	r21
 d3c:	4f 91       	pop	r20
 d3e:	3f 91       	pop	r19
 d40:	2f 91       	pop	r18
 d42:	0f 90       	pop	r0
 d44:	0f be       	out	0x3f, r0	; 63
 d46:	0f 90       	pop	r0
 d48:	1f 90       	pop	r1
 d4a:	18 95       	reti

00000d4c <main>:
void LED2();
void LED3();

extern u8 Golbal_flag;
void main(void)
{
 d4c:	df 93       	push	r29
 d4e:	cf 93       	push	r28
 d50:	cd b7       	in	r28, 0x3d	; 61
 d52:	de b7       	in	r29, 0x3e	; 62
	PORT_voidInit();
 d54:	0e 94 d5 03 	call	0x7aa	; 0x7aa <PORT_voidInit>
	RTOS_voidStart();
 d58:	0e 94 f9 03 	call	0x7f2	; 0x7f2 <RTOS_voidStart>
	//Periodicitiy  = 10ms
	RTOS_voidNewTask(10,0,&LED1,0);
 d5c:	2d ec       	ldi	r18, 0xCD	; 205
 d5e:	36 e0       	ldi	r19, 0x06	; 6
 d60:	8a e0       	ldi	r24, 0x0A	; 10
 d62:	90 e0       	ldi	r25, 0x00	; 0
 d64:	60 e0       	ldi	r22, 0x00	; 0
 d66:	a9 01       	movw	r20, r18
 d68:	20 e0       	ldi	r18, 0x00	; 0
 d6a:	30 e0       	ldi	r19, 0x00	; 0
 d6c:	0e 94 08 04 	call	0x810	; 0x810 <RTOS_voidNewTask>
	//Periodicitiy  = 20ms , FD = 1ms
	RTOS_voidNewTask(20,0,&LED2,0);
 d70:	21 ee       	ldi	r18, 0xE1	; 225
 d72:	36 e0       	ldi	r19, 0x06	; 6
 d74:	84 e1       	ldi	r24, 0x14	; 20
 d76:	90 e0       	ldi	r25, 0x00	; 0
 d78:	60 e0       	ldi	r22, 0x00	; 0
 d7a:	a9 01       	movw	r20, r18
 d7c:	20 e0       	ldi	r18, 0x00	; 0
 d7e:	30 e0       	ldi	r19, 0x00	; 0
 d80:	0e 94 08 04 	call	0x810	; 0x810 <RTOS_voidNewTask>
	//Periodicitiy  = 30ms , FD = 3ms
	RTOS_voidNewTask(30,1,&LED3,0);
 d84:	25 ef       	ldi	r18, 0xF5	; 245
 d86:	36 e0       	ldi	r19, 0x06	; 6
 d88:	8e e1       	ldi	r24, 0x1E	; 30
 d8a:	90 e0       	ldi	r25, 0x00	; 0
 d8c:	61 e0       	ldi	r22, 0x01	; 1
 d8e:	a9 01       	movw	r20, r18
 d90:	20 e0       	ldi	r18, 0x00	; 0
 d92:	30 e0       	ldi	r19, 0x00	; 0
 d94:	0e 94 08 04 	call	0x810	; 0x810 <RTOS_voidNewTask>
 d98:	ff cf       	rjmp	.-2      	; 0xd98 <main+0x4c>

00000d9a <LED1>:


}

void LED1()
{
 d9a:	df 93       	push	r29
 d9c:	cf 93       	push	r28
 d9e:	cd b7       	in	r28, 0x3d	; 61
 da0:	de b7       	in	r29, 0x3e	; 62
//#if(Mode==NON_PREMITIVE)
//	GIE_voidDisable();
//#endif

	static u8 Local_u8PinStat=1;
	DIO_u8SetPinValue(DIO_u8PORTD,DIO_u8PIN5,Local_u8PinStat);
 da2:	90 91 60 00 	lds	r25, 0x0060
 da6:	83 e0       	ldi	r24, 0x03	; 3
 da8:	65 e0       	ldi	r22, 0x05	; 5
 daa:	49 2f       	mov	r20, r25
 dac:	0e 94 a3 01 	call	0x346	; 0x346 <DIO_u8SetPinValue>
	Local_u8PinStat^=1;
 db0:	90 91 60 00 	lds	r25, 0x0060
 db4:	81 e0       	ldi	r24, 0x01	; 1
 db6:	89 27       	eor	r24, r25
 db8:	80 93 60 00 	sts	0x0060, r24


//	GIE_voidEnable();


}
 dbc:	cf 91       	pop	r28
 dbe:	df 91       	pop	r29
 dc0:	08 95       	ret

00000dc2 <LED2>:

void LED2()
{
 dc2:	df 93       	push	r29
 dc4:	cf 93       	push	r28
 dc6:	cd b7       	in	r28, 0x3d	; 61
 dc8:	de b7       	in	r29, 0x3e	; 62
//#if(Mode==NON_PREMITIVE)
//	GIE_voidDisable();
//#endif

	static u8 Local_u8PinStat=1;
	DIO_u8SetPinValue(DIO_u8PORTD,DIO_u8PIN6,Local_u8PinStat);
 dca:	90 91 61 00 	lds	r25, 0x0061
 dce:	83 e0       	ldi	r24, 0x03	; 3
 dd0:	66 e0       	ldi	r22, 0x06	; 6
 dd2:	49 2f       	mov	r20, r25
 dd4:	0e 94 a3 01 	call	0x346	; 0x346 <DIO_u8SetPinValue>
	Local_u8PinStat^=1;
 dd8:	90 91 61 00 	lds	r25, 0x0061
 ddc:	81 e0       	ldi	r24, 0x01	; 1
 dde:	89 27       	eor	r24, r25
 de0:	80 93 61 00 	sts	0x0061, r24
//	GIE_voidEnable();

}
 de4:	cf 91       	pop	r28
 de6:	df 91       	pop	r29
 de8:	08 95       	ret

00000dea <LED3>:
void LED3()
{
 dea:	df 93       	push	r29
 dec:	cf 93       	push	r28
 dee:	cd b7       	in	r28, 0x3d	; 61
 df0:	de b7       	in	r29, 0x3e	; 62
//#if(Mode==NON_PREMITIVE)
//	GIE_voidDisable();
//#endif

	static u8 Local_u8PinStat=1;
	DIO_u8SetPinValue(DIO_u8PORTD,DIO_u8PIN7,Local_u8PinStat);
 df2:	90 91 62 00 	lds	r25, 0x0062
 df6:	83 e0       	ldi	r24, 0x03	; 3
 df8:	67 e0       	ldi	r22, 0x07	; 7
 dfa:	49 2f       	mov	r20, r25
 dfc:	0e 94 a3 01 	call	0x346	; 0x346 <DIO_u8SetPinValue>
	Local_u8PinStat^=1;
 e00:	90 91 62 00 	lds	r25, 0x0062
 e04:	81 e0       	ldi	r24, 0x01	; 1
 e06:	89 27       	eor	r24, r25
 e08:	80 93 62 00 	sts	0x0062, r24
//	GIE_voidEnable();

}
 e0c:	cf 91       	pop	r28
 e0e:	df 91       	pop	r29
 e10:	08 95       	ret

00000e12 <_exit>:
 e12:	f8 94       	cli

00000e14 <__stop_program>:
 e14:	ff cf       	rjmp	.-2      	; 0xe14 <__stop_program>
